ccopy_reg
_reconstructor
p1
(c__main__
mRouter
p2
c__builtin__
object
p3
NtRp4
(dp5
S'intlist'
p6
g1
(c__main__
InterfaceList
p7
c__builtin__
list
p8
(lp9
g1
(c__main__
mInterface
p10
g3
NtRp11
(dp12
S'name'
p13
S'xe-1/2/2.910'
p14
sS'ldpout'
p15
I3233
sS'output'
p16
I6200
sS'speed'
p17
g1
(clxml.etree
_ElementStringResult
p18
c__builtin__
str
p19
S'10Gbps'
tRp20
(dp21
S'_parent'
p22
NsS'is_attribute'
p23
I00
sS'attrname'
p24
NsS'is_text'
p25
I00
sS'is_tail'
p26
I00
sbsS'rsvpout'
p27
I2967
sS'description'
p28
g1
(g18
g19
S'cheboks-r0_1st'
tRp29
(dp30
g22
Nsg23
I00
sg24
Nsg25
I00
sg26
I00
sbsbag1
(g10
g3
NtRp31
(dp32
g13
S'ae4.849'
p33
sg15
I11985
sg16
I63876
sg17
g1
(g18
g19
S'120Gbps'
tRp34
(dp35
g22
Nsg23
I00
sg24
Nsg25
I00
sg26
I00
sbsg27
I51891
sg28
g1
(g18
g19
S'm9-chelab_sv'
tRp36
(dp37
g22
Nsg23
I00
sg24
Nsg25
I00
sg26
I00
sbsbag1
(g10
g3
NtRp38
(dp39
g13
S'ae3.933'
p40
sg15
I14744
sg16
I42139
sg17
g1
(g18
g19
S'50Gbps'
tRp41
(dp42
g22
Nsg23
I00
sg24
Nsg25
I00
sg26
I00
sbsg27
I27395
sg28
g1
(g18
g19
S'eburg-r0_t8'
tRp43
(dp44
g22
Nsg23
I00
sg24
Nsg25
I00
sg26
I00
sbsbag1
(g10
g3
NtRp45
(dp46
g13
S'xe-1/1/1.1843'
p47
sg15
I363
sg16
I5096
sg17
g1
(g18
g19
S'10Gbps'
tRp48
(dp49
g22
Nsg23
I00
sg24
Nsg25
I00
sg26
I00
sbsg27
I4733
sg28
g1
(g18
g19
S'saratov-r0_newt8'
tRp50
(dp51
g22
Nsg23
I00
sg24
Nsg25
I00
sg26
I00
sbsbag1
(g10
g3
NtRp52
(dp53
g13
S'ae2.1854'
p54
sg15
I-55
sg16
I3853
sg17
g1
(g18
g19
S'80Gbps'
tRp55
(dp56
g22
Nsg23
I00
sg24
Nsg25
I00
sg26
I00
sbsg27
I3908
sg28
g1
(g18
g19
S'm9-r2_1st'
tRp57
(dp58
g22
Nsg23
I00
sg24
Nsg25
I00
sg26
I00
sbsbag1
(g10
g3
NtRp59
(dp60
g13
S'ae2.1867'
p61
sg15
I126
sg16
I873
sg17
g1
(g18
g19
S'80Gbps'
tRp62
(dp63
g22
Nsg23
I00
sg24
Nsg25
I00
sg26
I00
sbsg27
I747
sg28
g1
(g18
g19
S'saratov-r0_2nd'
tRp64
(dp65
g22
Nsg23
I00
sg24
Nsg25
I00
sg26
I00
sbsbag1
(g10
g3
NtRp66
(dp67
g13
S'ae2.1866'
p68
sg15
I2322
sg16
I5996
sg17
g1
(g18
g19
S'80Gbps'
tRp69
(dp70
g22
Nsg23
I00
sg24
Nsg25
I00
sg26
I00
sbsg27
I3674
sg28
g1
(g18
g19
S'samara-r0_2nd_newt8'
tRp71
(dp72
g22
Nsg23
I00
sg24
Nsg25
I00
sg26
I00
sbsbag1
(g10
g3
NtRp73
(dp74
g13
S'ae2.1865'
p75
sg15
I6246
sg16
I6246
sg17
g1
(g18
g19
S'80Gbps'
tRp76
(dp77
g22
Nsg23
I00
sg24
Nsg25
I00
sg26
I00
sbsg27
I0
sg28
g1
(g18
g19
S'samara-r0_newt8'
tRp78
(dp79
g22
Nsg23
I00
sg24
Nsg25
I00
sg26
I00
sbsbag1
(g10
g3
NtRp80
(dp81
g13
S'ae6.1855'
p82
sg15
I13183
sg16
I13183
sg17
g1
(g18
g19
S'80Gbps'
tRp83
(dp84
g22
Nsg23
I00
sg24
Nsg25
I00
sg26
I00
sbsg27
I0
sg28
g1
(g18
g19
S'm9-r2_m9-r0_2'
tRp85
(dp86
g22
Nsg23
I00
sg24
Nsg25
I00
sg26
I00
sbsbatRp87
(dp88
S'router'
p89
NsS'lsplist'
p90
Nsbsg90
g1
(c__main__
LSPList
p91
g8
(lp92
g1
(c__main__
mLSP
p93
g3
NtRp94
(dp95
g13
g1
(g18
g19
S'm9-chelab_sv'
tRp96
(dp97
g22
Nsg23
I00
sg24
Nsg25
I00
sg26
I00
sbsS'rbandwidth'
p98
S'2.3m'
p99
sS'state'
p100
g1
(g18
g19
S'Up'
tRp101
(dp102
g22
Nsg23
I00
sg24
Nsg25
I00
sg26
I00
sbsS'to'
p103
g1
(g18
g19
S'85.112.127.8'
tRp104
(dp105
g22
Nsg23
I00
sg24
Nsg25
I00
sg26
I00
sbsS'bandwidth'
p106
S'2000m'
p107
sS'path'
p108
(lp109
g1
(g18
g19
S'85.112.127.117'
tRp110
(dp111
g22
Nsg23
I00
sg24
Nsg25
I00
sg26
I00
sbasg16
I4627
sS'nexthop_interface'
p112
g33
sbag1
(g93
g3
NtRp113
(dp114
g13
g1
(g18
g19
S'm9-eburg-chelab'
tRp115
(dp116
g22
Nsg23
I00
sg24
Nsg25
I00
sg26
I00
sbsg98
S'2.2m'
p117
sg100
g1
(g18
g19
S'Up'
tRp118
(dp119
g22
Nsg23
I00
sg24
Nsg25
I00
sg26
I00
sbsg103
g1
(g18
g19
S'85.112.127.8'
tRp120
(dp121
g22
Nsg23
I00
sg24
Nsg25
I00
sg26
I00
sbsg106
S'750m'
p122
sg108
(lp123
g1
(g18
g19
S'85.112.127.233'
tRp124
(dp125
g22
Nsg23
I00
sg24
Nsg25
I00
sg26
I00
sbag1
(g18
g19
S'85.112.127.156'
tRp126
(dp127
g22
Nsg23
I00
sg24
Nsg25
I00
sg26
I00
sbasg16
I1645
sg112
g40
sbag1
(g93
g3
NtRp128
(dp129
g13
g1
(g18
g19
S'm9-samara-ufa-chelab_1'
tRp130
(dp131
g22
Nsg23
I00
sg24
Nsg25
I00
sg26
I00
sbsg98
S'None'
p132
sg100
S'Inactive'
p133
sg103
g1
(g18
g19
S'85.112.127.8'
tRp134
(dp135
g22
Nsg23
I00
sg24
Nsg25
I00
sg26
I00
sbsg106
S'1m'
p136
sg108
(lp137
g1
(g18
g19
S'85.112.127.244'
tRp138
(dp139
g22
Nsg23
I00
sg24
Nsg25
I00
sg26
I00
sbag1
(g18
g19
S'85.112.127.123'
tRp140
(dp141
g22
Nsg23
I00
sg24
Nsg25
I00
sg26
I00
sbag1
(g18
g19
S'85.112.127.194'
tRp142
(dp143
g22
Nsg23
I00
sg24
Nsg25
I00
sg26
I00
sbasg16
g132
sg112
g75
sbag1
(g93
g3
NtRp144
(dp145
g13
g1
(g18
g19
S'm9-samara-chelab_2'
tRp146
(dp147
g22
Nsg23
I00
sg24
Nsg25
I00
sg26
I00
sbsg98
g132
sg100
g133
sg103
g1
(g18
g19
S'85.112.127.8'
tRp148
(dp149
g22
Nsg23
I00
sg24
Nsg25
I00
sg26
I00
sbsg106
S'500m'
p150
sg108
(lp151
g1
(g18
g19
S'85.112.127.246'
tRp152
(dp153
g22
Nsg23
I00
sg24
Nsg25
I00
sg26
I00
sbag1
(g18
g19
S'85.112.127.251'
tRp154
(dp155
g22
Nsg23
I00
sg24
Nsg25
I00
sg26
I00
sbasg16
g132
sg112
g68
sbag1
(g93
g3
NtRp156
(dp157
g13
g1
(g18
g19
S'm9-saratov-ufa-chelab_2'
tRp158
(dp159
g22
Nsg23
I00
sg24
Nsg25
I00
sg26
I00
sbsg98
g132
sg100
g133
sg103
g1
(g18
g19
S'85.112.127.8'
tRp160
(dp161
g22
Nsg23
I00
sg24
Nsg25
I00
sg26
I00
sbsg106
S'250m'
p162
sg108
(lp163
g1
(g18
g19
S'85.112.127.230'
tRp164
(dp165
g22
Nsg23
I00
sg24
Nsg25
I00
sg26
I00
sbag1
(g18
g19
S'85.112.127.249'
tRp166
(dp167
g22
Nsg23
I00
sg24
Nsg25
I00
sg26
I00
sbag1
(g18
g19
S'85.112.127.194'
tRp168
(dp169
g22
Nsg23
I00
sg24
Nsg25
I00
sg26
I00
sbasg16
g132
sg112
g61
sbag1
(g93
g3
NtRp170
(dp171
g13
g1
(g18
g19
S'm9-eburg'
tRp172
(dp173
g22
Nsg23
I00
sg24
Nsg25
I00
sg26
I00
sbsg98
S'7.1m'
p174
sg100
g1
(g18
g19
S'Up'
tRp175
(dp176
g22
Nsg23
I00
sg24
Nsg25
I00
sg26
I00
sbsg103
g1
(g18
g19
S'85.112.127.9'
tRp177
(dp178
g22
Nsg23
I00
sg24
Nsg25
I00
sg26
I00
sbsg106
S'2500m'
p179
sg108
(lp180
g1
(g18
g19
S'85.112.127.233'
tRp181
(dp182
g22
Nsg23
I00
sg24
Nsg25
I00
sg26
I00
sbasg16
I17771
sg112
g40
sbag1
(g93
g3
NtRp183
(dp184
g13
g1
(g18
g19
S'm9-m9-r2-eburg'
tRp185
(dp186
g22
Nsg23
I00
sg24
Nsg25
I00
sg26
I00
sbsg98
g132
sg100
g133
sg103
g1
(g18
g19
S'85.112.127.9'
tRp187
(dp188
g22
Nsg23
I00
sg24
Nsg25
I00
sg26
I00
sbsg106
S'100m'
p189
sg108
(lp190
g1
(g18
g19
S'85.112.127.171'
tRp191
(dp192
g22
Nsg23
I00
sg24
Nsg25
I00
sg26
I00
sbag1
(g18
g19
S'85.112.127.173'
tRp193
(dp194
g22
Nsg23
I00
sg24
Nsg25
I00
sg26
I00
sbasg16
g132
sg112
g82
sbag1
(g93
g3
NtRp195
(dp196
g13
g1
(g18
g19
S'm9-chelab-eburg'
tRp197
(dp198
g22
Nsg23
I00
sg24
Nsg25
I00
sg26
I00
sbsg98
S'7.2m'
p199
sg100
g1
(g18
g19
S'Up'
tRp200
(dp201
g22
Nsg23
I00
sg24
Nsg25
I00
sg26
I00
sbsg103
g1
(g18
g19
S'85.112.127.9'
tRp202
(dp203
g22
Nsg23
I00
sg24
Nsg25
I00
sg26
I00
sbsg106
S'4200m'
p204
sg108
(lp205
g1
(g18
g19
S'85.112.127.117'
tRp206
(dp207
g22
Nsg23
I00
sg24
Nsg25
I00
sg26
I00
sbag1
(g18
g19
S'85.112.127.157'
tRp208
(dp209
g22
Nsg23
I00
sg24
Nsg25
I00
sg26
I00
sbasg16
I30354
sg112
g33
sbag1
(g93
g3
NtRp210
(dp211
g13
g1
(g18
g19
S'm9-r0-m9-r2-kazan-ufa-chelab-eburg'
tRp212
(dp213
g22
Nsg23
I00
sg24
Nsg25
I00
sg26
I00
sbsg98
S'0.0m'
p214
sg100
g1
(g18
g19
S'Dn'
tRp215
(dp216
g22
Nsg23
I00
sg24
Nsg25
I00
sg26
I00
sbsg103
g1
(g18
g19
S'85.112.127.9'
tRp217
(dp218
g22
Nsg23
I00
sg24
Nsg25
I00
sg26
I00
sbsg106
S'250m'
p219
sg108
(lp220
g1
(g18
g19
S'85.112.127.171'
tRp221
(dp222
g22
Nsg23
I00
sg24
Nsg25
I00
sg26
I00
sbag1
(g18
g19
S'85.112.127.119'
tRp223
(dp224
g22
Nsg23
I00
sg24
Nsg25
I00
sg26
I00
sbag1
(g18
g19
S'85.112.127.222'
tRp225
(dp226
g22
Nsg23
I00
sg24
Nsg25
I00
sg26
I00
sbag1
(g18
g19
S'85.112.127.194'
tRp227
(dp228
g22
Nsg23
I00
sg24
Nsg25
I00
sg26
I00
sbag1
(g18
g19
S'85.112.127.157'
tRp229
(dp230
g22
Nsg23
I00
sg24
Nsg25
I00
sg26
I00
sbasg16
S'Down'
p231
sg112
g82
sbag1
(g93
g3
NtRp232
(dp233
g13
g1
(g18
g19
S'm9-saratov-eburg_1'
tRp234
(dp235
g22
Nsg23
I00
sg24
Nsg25
I00
sg26
I00
sbsg98
S'6.8m'
p236
sg100
g1
(g18
g19
S'Up'
tRp237
(dp238
g22
Nsg23
I00
sg24
Nsg25
I00
sg26
I00
sbsg103
g1
(g18
g19
S'85.112.127.9'
tRp239
(dp240
g22
Nsg23
I00
sg24
Nsg25
I00
sg26
I00
sbsg106
S'700m'
p241
sg108
(lp242
g1
(g18
g19
S'85.112.127.151'
tRp243
(dp244
g22
Nsg23
I00
sg24
Nsg25
I00
sg26
I00
sbag1
(g18
g19
S'85.112.127.183'
tRp245
(dp246
g22
Nsg23
I00
sg24
Nsg25
I00
sg26
I00
sbasg16
I4733
sg112
g47
sbag1
(g93
g3
NtRp247
(dp248
g13
g1
(g18
g19
S'm9-saratov-ufa-chelab-eburg_2'
tRp249
(dp250
g22
Nsg23
I00
sg24
Nsg25
I00
sg26
I00
sbsg98
S'7.5m'
p251
sg100
g1
(g18
g19
S'Up'
tRp252
(dp253
g22
Nsg23
I00
sg24
Nsg25
I00
sg26
I00
sbsg103
g1
(g18
g19
S'85.112.127.9'
tRp254
(dp255
g22
Nsg23
I00
sg24
Nsg25
I00
sg26
I00
sbsg106
S'100m'
p256
sg108
(lp257
g1
(g18
g19
S'85.112.127.230'
tRp258
(dp259
g22
Nsg23
I00
sg24
Nsg25
I00
sg26
I00
sbag1
(g18
g19
S'85.112.127.249'
tRp260
(dp261
g22
Nsg23
I00
sg24
Nsg25
I00
sg26
I00
sbag1
(g18
g19
S'85.112.127.194'
tRp262
(dp263
g22
Nsg23
I00
sg24
Nsg25
I00
sg26
I00
sbag1
(g18
g19
S'85.112.127.157'
tRp264
(dp265
g22
Nsg23
I00
sg24
Nsg25
I00
sg26
I00
sbasg16
I747
sg112
g61
sbag1
(g93
g3
NtRp266
(dp267
g13
g1
(g18
g19
S'm9-samara-ufa-eburg_1'
tRp268
(dp269
g22
Nsg23
I00
sg24
Nsg25
I00
sg26
I00
sbsg98
g132
sg100
g1
(g18
g19
S'Up'
tRp270
(dp271
g22
Nsg23
I00
sg24
Nsg25
I00
sg26
I00
sbsg103
g1
(g18
g19
S'85.112.127.9'
tRp272
(dp273
g22
Nsg23
I00
sg24
Nsg25
I00
sg26
I00
sbsg106
S'500m'
p274
sg108
(lp275
g1
(g18
g19
S'85.112.127.244'
tRp276
(dp277
g22
Nsg23
I00
sg24
Nsg25
I00
sg26
I00
sbag1
(g18
g19
S'85.112.127.123'
tRp278
(dp279
g22
Nsg23
I00
sg24
Nsg25
I00
sg26
I00
sbag1
(g18
g19
S'85.112.127.175'
tRp280
(dp281
g22
Nsg23
I00
sg24
Nsg25
I00
sg26
I00
sbasg16
g132
sg112
g75
sbag1
(g93
g3
NtRp282
(dp283
g13
g1
(g18
g19
S'm9-samara-chelab-eburg_2'
tRp284
(dp285
g22
Nsg23
I00
sg24
Nsg25
I00
sg26
I00
sbsg98
S'7.3m'
p286
sg100
g1
(g18
g19
S'Up'
tRp287
(dp288
g22
Nsg23
I00
sg24
Nsg25
I00
sg26
I00
sbsg103
g1
(g18
g19
S'85.112.127.9'
tRp289
(dp290
g22
Nsg23
I00
sg24
Nsg25
I00
sg26
I00
sbsg106
S'500m'
p291
sg108
(lp292
g1
(g18
g19
S'85.112.127.246'
tRp293
(dp294
g22
Nsg23
I00
sg24
Nsg25
I00
sg26
I00
sbag1
(g18
g19
S'85.112.127.251'
tRp295
(dp296
g22
Nsg23
I00
sg24
Nsg25
I00
sg26
I00
sbag1
(g18
g19
S'85.112.127.157'
tRp297
(dp298
g22
Nsg23
I00
sg24
Nsg25
I00
sg26
I00
sbasg16
I3674
sg112
g68
sbag1
(g93
g3
NtRp299
(dp300
g13
g1
(g18
g19
S'm9-eburg-novosib'
tRp301
(dp302
g22
Nsg23
I00
sg24
Nsg25
I00
sg26
I00
sbsg98
S'2.7m'
p303
sg100
g1
(g18
g19
S'Up'
tRp304
(dp305
g22
Nsg23
I00
sg24
Nsg25
I00
sg26
I00
sbsg103
g1
(g18
g19
S'85.112.127.7'
tRp306
(dp307
g22
Nsg23
I00
sg24
Nsg25
I00
sg26
I00
sbsg106
S'3000m'
p308
sg108
(lp309
g1
(g18
g19
S'85.112.127.233'
tRp310
(dp311
g22
Nsg23
I00
sg24
Nsg25
I00
sg26
I00
sbag1
(g18
g19
S'85.112.127.221'
tRp312
(dp313
g22
Nsg23
I00
sg24
Nsg25
I00
sg26
I00
sbasg16
I7979
sg112
g40
sbag1
(g93
g3
NtRp314
(dp315
g13
g1
(g18
g19
S'm9-chelab-novosib'
tRp316
(dp317
g22
Nsg23
I00
sg24
Nsg25
I00
sg26
I00
sbsg98
S'2.7m'
p318
sg100
g1
(g18
g19
S'Up'
tRp319
(dp320
g22
Nsg23
I00
sg24
Nsg25
I00
sg26
I00
sbsg103
g1
(g18
g19
S'85.112.127.7'
tRp321
(dp322
g22
Nsg23
I00
sg24
Nsg25
I00
sg26
I00
sbsg106
S'4000m'
p323
sg108
(lp324
g1
(g18
g19
S'85.112.127.117'
tRp325
(dp326
g22
Nsg23
I00
sg24
Nsg25
I00
sg26
I00
sbag1
(g18
g19
S'85.112.127.235'
tRp327
(dp328
g22
Nsg23
I00
sg24
Nsg25
I00
sg26
I00
sbasg16
I10964
sg112
g33
sbag1
(g93
g3
NtRp329
(dp330
g13
g1
(g18
g19
S'm9-chelab-eburg-novosib'
tRp331
(dp332
g22
Nsg23
I00
sg24
Nsg25
I00
sg26
I00
sbsg98
S'2.7m'
p333
sg100
g1
(g18
g19
S'Up'
tRp334
(dp335
g22
Nsg23
I00
sg24
Nsg25
I00
sg26
I00
sbsg103
g1
(g18
g19
S'85.112.127.7'
tRp336
(dp337
g22
Nsg23
I00
sg24
Nsg25
I00
sg26
I00
sbsg106
S'2200m'
p338
sg108
(lp339
g1
(g18
g19
S'85.112.127.117'
tRp340
(dp341
g22
Nsg23
I00
sg24
Nsg25
I00
sg26
I00
sbag1
(g18
g19
S'85.112.127.157'
tRp342
(dp343
g22
Nsg23
I00
sg24
Nsg25
I00
sg26
I00
sbag1
(g18
g19
S'85.112.127.221'
tRp344
(dp345
g22
Nsg23
I00
sg24
Nsg25
I00
sg26
I00
sbasg16
I5946
sg112
g33
sbag1
(g93
g3
NtRp346
(dp347
g13
g1
(g18
g19
S'm9-eburg-tumen-novosib_1'
tRp348
(dp349
g22
Nsg23
I00
sg24
Nsg25
I00
sg26
I00
sbsg98
g132
sg100
g1
(g18
g19
S'Up'
tRp350
(dp351
g22
Nsg23
I00
sg24
Nsg25
I00
sg26
I00
sbsg103
g1
(g18
g19
S'85.112.127.7'
tRp352
(dp353
g22
Nsg23
I00
sg24
Nsg25
I00
sg26
I00
sbsg106
S'300m'
p354
sg108
(lp355
g1
(g18
g19
S'85.112.127.233'
tRp356
(dp357
g22
Nsg23
I00
sg24
Nsg25
I00
sg26
I00
sbag1
(g18
g19
S'85.112.127.58'
tRp358
(dp359
g22
Nsg23
I00
sg24
Nsg25
I00
sg26
I00
sbag1
(g18
g19
S'85.112.127.162'
tRp360
(dp361
g22
Nsg23
I00
sg24
Nsg25
I00
sg26
I00
sbasg16
g132
sg112
g40
sbag1
(g93
g3
NtRp362
(dp363
g13
g1
(g18
g19
S'm9-r0-m9-r2-nnov-eburg-novosib_sv'
tRp364
(dp365
g22
Nsg23
I00
sg24
Nsg25
I00
sg26
I00
sbsg98
g132
sg100
g1
(g18
g19
S'Up'
tRp366
(dp367
g22
Nsg23
I00
sg24
Nsg25
I00
sg26
I00
sbsg103
g1
(g18
g19
S'85.112.127.7'
tRp368
(dp369
g22
Nsg23
I00
sg24
Nsg25
I00
sg26
I00
sbsg106
S'1000m'
p370
sg108
(lp371
g1
(g18
g19
S'85.112.127.171'
tRp372
(dp373
g22
Nsg23
I00
sg24
Nsg25
I00
sg26
I00
sbag1
(g18
g19
S'85.112.127.177'
tRp374
(dp375
g22
Nsg23
I00
sg24
Nsg25
I00
sg26
I00
sbag1
(g18
g19
S'85.112.127.98'
tRp376
(dp377
g22
Nsg23
I00
sg24
Nsg25
I00
sg26
I00
sbag1
(g18
g19
S'85.112.127.221'
tRp378
(dp379
g22
Nsg23
I00
sg24
Nsg25
I00
sg26
I00
sbasg16
g132
sg112
g82
sbag1
(g93
g3
NtRp380
(dp381
g13
g1
(g18
g19
S'm9-eburg-tumen-novosib_2'
tRp382
(dp383
g22
Nsg23
I00
sg24
Nsg25
I00
sg26
I00
sbsg98
g132
sg100
g1
(g18
g19
S'Up'
tRp384
(dp385
g22
Nsg23
I00
sg24
Nsg25
I00
sg26
I00
sbsg103
g1
(g18
g19
S'85.112.127.7'
tRp386
(dp387
g22
Nsg23
I00
sg24
Nsg25
I00
sg26
I00
sbsg106
S'1000m'
p388
sg108
(lp389
g1
(g18
g19
S'85.112.127.233'
tRp390
(dp391
g22
Nsg23
I00
sg24
Nsg25
I00
sg26
I00
sbag1
(g18
g19
S'85.112.127.58'
tRp392
(dp393
g22
Nsg23
I00
sg24
Nsg25
I00
sg26
I00
sbag1
(g18
g19
S'85.112.127.61'
tRp394
(dp395
g22
Nsg23
I00
sg24
Nsg25
I00
sg26
I00
sbasg16
g132
sg112
g40
sbag1
(g93
g3
NtRp396
(dp397
g13
g1
(g18
g19
S'm9-eburg-novosib_sv'
tRp398
(dp399
g22
Nsg23
I00
sg24
Nsg25
I00
sg26
I00
sbsg98
g132
sg100
g1
(g18
g19
S'Up'
tRp400
(dp401
g22
Nsg23
I00
sg24
Nsg25
I00
sg26
I00
sbsg103
g1
(g18
g19
S'85.112.127.7'
tRp402
(dp403
g22
Nsg23
I00
sg24
Nsg25
I00
sg26
I00
sbsg106
S'1000m'
p404
sg108
(lp405
g1
(g18
g19
S'85.112.127.233'
tRp406
(dp407
g22
Nsg23
I00
sg24
Nsg25
I00
sg26
I00
sbag1
(g18
g19
S'85.112.127.126'
tRp408
(dp409
g22
Nsg23
I00
sg24
Nsg25
I00
sg26
I00
sbasg16
g132
sg112
g40
sbag1
(g93
g3
NtRp410
(dp411
g13
g1
(g18
g19
S'm9-cheboks1'
tRp412
(dp413
g22
Nsg23
I00
sg24
Nsg25
I00
sg26
I00
sbsg98
S'3.0m'
p414
sg100
g1
(g18
g19
S'Up'
tRp415
(dp416
g22
Nsg23
I00
sg24
Nsg25
I00
sg26
I00
sbsg103
g1
(g18
g19
S'85.112.127.13'
tRp417
(dp418
g22
Nsg23
I00
sg24
Nsg25
I00
sg26
I00
sbsg106
S'1000m'
p419
sg108
(lp420
g1
(g18
g19
S'85.112.127.213'
tRp421
(dp422
g22
Nsg23
I00
sg24
Nsg25
I00
sg26
I00
sbasg16
I2967
sg112
g14
sbag1
(g93
g3
NtRp423
(dp424
g13
g1
(g18
g19
S'm9-r0-m9-r2-kazan-cheboks'
tRp425
(dp426
g22
Nsg23
I00
sg24
Nsg25
I00
sg26
I00
sbsg98
S'0.0m'
p427
sg100
g1
(g18
g19
S'Dn'
tRp428
(dp429
g22
Nsg23
I00
sg24
Nsg25
I00
sg26
I00
sbsg103
g1
(g18
g19
S'85.112.127.13'
tRp430
(dp431
g22
Nsg23
I00
sg24
Nsg25
I00
sg26
I00
sbsg106
S'500m'
p432
sg108
(lp433
g1
(g18
g19
S'85.112.127.168'
tRp434
(dp435
g22
Nsg23
I00
sg24
Nsg25
I00
sg26
I00
sbag1
(g18
g19
S'85.112.127.119'
tRp436
(dp437
g22
Nsg23
I00
sg24
Nsg25
I00
sg26
I00
sbag1
(g18
g19
S'85.112.127.218'
tRp438
(dp439
g22
Nsg23
I00
sg24
Nsg25
I00
sg26
I00
sbasg16
g231
sg112
g54
sbag1
(g93
g3
NtRp440
(dp441
g13
g1
(g18
g19
S'm9-r0-m9-r2-nnov_sv'
tRp442
(dp443
g22
Nsg23
I00
sg24
Nsg25
I00
sg26
I00
sbsg98
S'39.1m'
p444
sg100
g1
(g18
g19
S'Up'
tRp445
(dp446
g22
Nsg23
I00
sg24
Nsg25
I00
sg26
I00
sbsg103
g1
(g18
g19
S'85.112.127.10'
tRp447
(dp448
g22
Nsg23
I00
sg24
Nsg25
I00
sg26
I00
sbsg106
S'100m'
p449
sg108
(lp450
g1
(g18
g19
S'85.112.127.168'
tRp451
(dp452
g22
Nsg23
I00
sg24
Nsg25
I00
sg26
I00
sbag1
(g18
g19
S'85.112.127.177'
tRp453
(dp454
g22
Nsg23
I00
sg24
Nsg25
I00
sg26
I00
sbasg16
I3908
sg112
g54
sbag1
(g93
g3
NtRp455
(dp456
g13
g1
(g18
g19
S'm9-r0-m9-r2-nnov-sw0-r0'
tRp457
(dp458
g22
Nsg23
I00
sg24
Nsg25
I00
sg26
I00
sbsg98
g132
sg100
g1
(g18
g19
S'Dn'
tRp459
(dp460
g22
Nsg23
I00
sg24
Nsg25
I00
sg26
I00
sbsg103
g1
(g18
g19
S'85.112.127.10'
tRp461
(dp462
g22
Nsg23
I00
sg24
Nsg25
I00
sg26
I00
sbsg106
S'100m'
p463
sg108
(lp464
g1
(g18
g19
S'85.112.127.168'
tRp465
(dp466
g22
Nsg23
I00
sg24
Nsg25
I00
sg26
I00
sbag1
(g18
g19
S'85.112.127.241'
tRp467
(dp468
g22
Nsg23
I00
sg24
Nsg25
I00
sg26
I00
sbasg16
g132
sg112
g54
sbag1
(g93
g3
NtRp469
(dp470
g13
g1
(g18
g19
S'm9-m9-r2-chelab-eburg'
tRp471
(dp472
g22
Nsg23
I00
sg24
Nsg25
I00
sg26
I00
sbsg98
g132
sg100
g1
(g18
g19
S'Up'
tRp473
(dp474
g22
Nsg23
I00
sg24
Nsg25
I00
sg26
I00
sbsg103
g1
(g18
g19
S'85.112.127.9'
tRp475
(dp476
g22
Nsg23
I00
sg24
Nsg25
I00
sg26
I00
sbsg106
S'1200m'
p477
sg108
(lp478
g1
(g18
g19
S'85.112.127.171'
tRp479
(dp480
g22
Nsg23
I00
sg24
Nsg25
I00
sg26
I00
sbag1
(g18
g19
S'85.112.127.155'
tRp481
(dp482
g22
Nsg23
I00
sg24
Nsg25
I00
sg26
I00
sbag1
(g18
g19
S'85.112.127.157'
tRp483
(dp484
g22
Nsg23
I00
sg24
Nsg25
I00
sg26
I00
sbasg16
g132
sg112
g82
sbatRp485
(dp486
g89
NsS'zabbixapi'
p487
Nsbsg13
S'm9-r0'
p488
sS'last_parse'
p489
S'Mon Jan 25 17:11:48 2016'
p490
sb.