ccopy_reg
_reconstructor
p1
(c__main__
mRouter
p2
c__builtin__
object
p3
NtRp4
(dp5
S'neighbors'
p6
(lp7
(dp8
S'ip'
p9
S'85.112.127.2'
p10
sS'description'
p11
S'm9-r2'
p12
sa(dp13
g9
S'85.112.127.3'
p14
sg11
S'fft-r0_mx80'
p15
sa(dp16
g9
S'85.112.127.4'
p17
sg11
S'm9-r1'
p18
sa(dp19
g9
S'85.112.127.5'
p20
sg11
S'mr-r0'
p21
sa(dp22
g9
S'85.112.127.7'
p23
sg11
S'novosib-r0'
p24
sa(dp25
g9
S'85.112.127.8'
p26
sg11
S'chelab-r0'
p27
sa(dp28
g9
S'85.112.127.9'
p29
sg11
S'eburg-r0'
p30
sa(dp31
g9
S'85.112.127.10'
p32
sg11
S'nnov-r0'
p33
sa(dp34
g9
S'85.112.127.11'
p35
sg11
S'tumen-r0'
p36
sa(dp37
g9
S'85.112.127.12'
p38
sg11
S'rostov-r0'
p39
sa(dp40
g9
S'85.112.127.13'
p41
sg11
S'cheboks-r0'
p42
sa(dp43
g9
S'85.112.127.14'
p44
sg11
S'ufa-r0'
p45
sa(dp46
g9
S'85.112.127.15'
p47
sg11
S'piter-r0'
p48
sa(dp49
g9
S'85.112.127.16'
p50
sg11
S'samara-r0'
p51
sa(dp52
g9
S'85.112.127.17'
p53
sg11
S'kazan-r0'
p54
sa(dp55
g9
S'85.112.127.18'
p56
sg11
S'kiev-r0'
p57
sa(dp58
g9
S'85.112.127.19'
p59
sg11
S'zelen-r0'
p60
sa(dp61
g9
S'85.112.127.20'
p62
sg11
S'tagank-r0'
p63
sa(dp64
g9
S'85.112.127.21'
p65
sg11
S'saratov-r0'
p66
sa(dp67
g9
S'85.112.127.22'
p68
sg11
S'borov-r0'
p69
sa(dp70
g9
S'85.112.127.6'
p71
sg11
S'tumen-r0_mx240'
p72
sasS'intlist'
p73
g1
(c__main__
InterfaceList
p74
c__builtin__
list
p75
(lp76
g1
(c__main__
mInterface
p77
g3
NtRp78
(dp79
S'output_gbps'
p80
S'5.24'
p81
sS'name'
p82
S'xe-1/2/2.910'
p83
sS'utilization'
p84
I52
sS'ldpout'
p85
I2929
sS'output'
p86
I5240
sS'speed'
p87
g1
(clxml.etree
_ElementStringResult
p88
c__builtin__
str
p89
S'10Gbps'
tRp90
(dp91
S'_parent'
p92
NsS'is_attribute'
p93
I00
sS'attrname'
p94
NsS'is_text'
p95
I00
sS'is_tail'
p96
I00
sbsS'rsvpout'
p97
I2311
sg11
g1
(g88
g89
S'cheboks-r0_1st'
tRp98
(dp99
g92
Nsg93
I00
sg94
Nsg95
I00
sg96
I00
sbsbag1
(g77
g3
NtRp100
(dp101
g80
S'48.54'
p102
sg82
S'ae4.849'
p103
sg84
I40
sg85
I9386
sg86
I48540
sg87
g1
(g88
g89
S'120Gbps'
tRp104
(dp105
g92
Nsg93
I00
sg94
Nsg95
I00
sg96
I00
sbsg97
I39154
sg11
g1
(g88
g89
S'm9-chelab_sv'
tRp106
(dp107
g92
Nsg93
I00
sg94
Nsg95
I00
sg96
I00
sbsbag1
(g77
g3
NtRp108
(dp109
g80
S'33.33'
p110
sg82
S'ae3.933'
p111
sg84
I66
sg85
I12907
sg86
I33325
sg87
g1
(g88
g89
S'50Gbps'
tRp112
(dp113
g92
Nsg93
I00
sg94
Nsg95
I00
sg96
I00
sbsg97
I20418
sg11
g1
(g88
g89
S'eburg-r0_t8'
tRp114
(dp115
g92
Nsg93
I00
sg94
Nsg95
I00
sg96
I00
sbsbag1
(g77
g3
NtRp116
(dp117
g80
S'4.13'
p118
sg82
S'xe-1/1/1.1843'
p119
sg84
I41
sg85
I666
sg86
I4127
sg87
g1
(g88
g89
S'10Gbps'
tRp120
(dp121
g92
Nsg93
I00
sg94
Nsg95
I00
sg96
I00
sbsg97
I3461
sg11
g1
(g88
g89
S'saratov-r0_newt8'
tRp122
(dp123
g92
Nsg93
I00
sg94
Nsg95
I00
sg96
I00
sbsbag1
(g77
g3
NtRp124
(dp125
g80
S'4.25'
p126
sg82
S'ae2.1854'
p127
sg84
I5
sg85
I-43
sg86
I4251
sg87
g1
(g88
g89
S'80Gbps'
tRp128
(dp129
g92
Nsg93
I00
sg94
Nsg95
I00
sg96
I00
sbsg97
I4294
sg11
g1
(g88
g89
S'm9-r2_1st'
tRp130
(dp131
g92
Nsg93
I00
sg94
Nsg95
I00
sg96
I00
sbsbag1
(g77
g3
NtRp132
(dp133
g80
S'0.62'
p134
sg82
S'ae2.1867'
p135
sg84
I0
sg85
I58
sg86
I619
sg87
g1
(g88
g89
S'80Gbps'
tRp136
(dp137
g92
Nsg93
I00
sg94
Nsg95
I00
sg96
I00
sbsg97
I561
sg11
g1
(g88
g89
S'saratov-r0_2nd'
tRp138
(dp139
g92
Nsg93
I00
sg94
Nsg95
I00
sg96
I00
sbsbag1
(g77
g3
NtRp140
(dp141
g80
S'5.1'
p142
sg82
S'ae2.1866'
p143
sg84
I6
sg85
I2572
sg86
I5100
sg87
g1
(g88
g89
S'80Gbps'
tRp144
(dp145
g92
Nsg93
I00
sg94
Nsg95
I00
sg96
I00
sbsg97
I2528
sg11
g1
(g88
g89
S'samara-r0_2nd_newt8'
tRp146
(dp147
g92
Nsg93
I00
sg94
Nsg95
I00
sg96
I00
sbsbag1
(g77
g3
NtRp148
(dp149
g80
S'5.27'
p150
sg82
S'ae2.1865'
p151
sg84
I6
sg85
I5269
sg86
I5269
sg87
g1
(g88
g89
S'80Gbps'
tRp152
(dp153
g92
Nsg93
I00
sg94
Nsg95
I00
sg96
I00
sbsg97
I0
sg11
g1
(g88
g89
S'samara-r0_newt8'
tRp154
(dp155
g92
Nsg93
I00
sg94
Nsg95
I00
sg96
I00
sbsbag1
(g77
g3
NtRp156
(dp157
g80
S'10.81'
p158
sg82
S'ae6.1855'
p159
sg84
I13
sg85
I10815
sg86
I10815
sg87
g1
(g88
g89
S'80Gbps'
tRp160
(dp161
g92
Nsg93
I00
sg94
Nsg95
I00
sg96
I00
sbsg97
I0
sg11
g1
(g88
g89
S'm9-r2_m9-r0_2'
tRp162
(dp163
g92
Nsg93
I00
sg94
Nsg95
I00
sg96
I00
sbsbatRp164
(dp165
S'router'
p166
NsS'lsplist'
p167
Nsbsg167
g1
(c__main__
LSPList
p168
g75
(lp169
g1
(c__main__
mLSP
p170
g3
NtRp171
(dp172
g80
S'3.79'
p173
sg82
g1
(g88
g89
S'm9-chelab_sv'
tRp174
(dp175
g92
Nsg93
I00
sg94
Nsg95
I00
sg96
I00
sbsS'state'
p176
g1
(g88
g89
S'Up'
tRp177
(dp178
g92
Nsg93
I00
sg94
Nsg95
I00
sg96
I00
sbsS'rbandwidth'
p179
S'1.9m'
p180
sS'bandwidth'
p181
S'2000m'
p182
sS'to'
p183
g1
(g88
g89
S'85.112.127.8'
tRp184
(dp185
g92
Nsg93
I00
sg94
Nsg95
I00
sg96
I00
sbsS'path_formatted'
p186
S'85.112.127.117'
p187
sS'to_name'
p188
g27
sg86
I3794
sS'path'
p189
(lp190
g1
(g88
g89
S'85.112.127.117'
tRp191
(dp192
g92
Nsg93
I00
sg94
Nsg95
I00
sg96
I00
sbasS'nexthop_interface'
p193
g103
sbag1
(g170
g3
NtRp194
(dp195
g80
S'1.24'
p196
sg82
g1
(g88
g89
S'm9-eburg-chelab'
tRp197
(dp198
g92
Nsg93
I00
sg94
Nsg95
I00
sg96
I00
sbsg176
g1
(g88
g89
S'Up'
tRp199
(dp200
g92
Nsg93
I00
sg94
Nsg95
I00
sg96
I00
sbsg179
S'1.7m'
p201
sg181
S'750m'
p202
sg183
g1
(g88
g89
S'85.112.127.8'
tRp203
(dp204
g92
Nsg93
I00
sg94
Nsg95
I00
sg96
I00
sbsg186
S'85.112.127.233 - 85.112.127.156'
p205
sg188
g27
sg86
I1241
sg189
(lp206
g1
(g88
g89
S'85.112.127.233'
tRp207
(dp208
g92
Nsg93
I00
sg94
Nsg95
I00
sg96
I00
sbag1
(g88
g89
S'85.112.127.156'
tRp209
(dp210
g92
Nsg93
I00
sg94
Nsg95
I00
sg96
I00
sbasg193
g111
sbag1
(g170
g3
NtRp211
(dp212
g80
Nsg82
g1
(g88
g89
S'm9-samara-ufa-chelab_1'
tRp213
(dp214
g92
Nsg93
I00
sg94
Nsg95
I00
sg96
I00
sbsg176
S'Inactive'
p215
sg179
S'None'
p216
sg181
S'1m'
p217
sg183
g1
(g88
g89
S'85.112.127.8'
tRp218
(dp219
g92
Nsg93
I00
sg94
Nsg95
I00
sg96
I00
sbsg186
S'85.112.127.244 - 85.112.127.123 - 85.112.127.194'
p220
sg188
g27
sg86
g216
sg189
(lp221
g1
(g88
g89
S'85.112.127.244'
tRp222
(dp223
g92
Nsg93
I00
sg94
Nsg95
I00
sg96
I00
sbag1
(g88
g89
S'85.112.127.123'
tRp224
(dp225
g92
Nsg93
I00
sg94
Nsg95
I00
sg96
I00
sbag1
(g88
g89
S'85.112.127.194'
tRp226
(dp227
g92
Nsg93
I00
sg94
Nsg95
I00
sg96
I00
sbasg193
g151
sbag1
(g170
g3
NtRp228
(dp229
g80
Nsg82
g1
(g88
g89
S'm9-samara-chelab_2'
tRp230
(dp231
g92
Nsg93
I00
sg94
Nsg95
I00
sg96
I00
sbsg176
g215
sg179
g216
sg181
S'500m'
p232
sg183
g1
(g88
g89
S'85.112.127.8'
tRp233
(dp234
g92
Nsg93
I00
sg94
Nsg95
I00
sg96
I00
sbsg186
S'85.112.127.246 - 85.112.127.251'
p235
sg188
g27
sg86
g216
sg189
(lp236
g1
(g88
g89
S'85.112.127.246'
tRp237
(dp238
g92
Nsg93
I00
sg94
Nsg95
I00
sg96
I00
sbag1
(g88
g89
S'85.112.127.251'
tRp239
(dp240
g92
Nsg93
I00
sg94
Nsg95
I00
sg96
I00
sbasg193
g143
sbag1
(g170
g3
NtRp241
(dp242
g80
Nsg82
g1
(g88
g89
S'm9-saratov-ufa-chelab_2'
tRp243
(dp244
g92
Nsg93
I00
sg94
Nsg95
I00
sg96
I00
sbsg176
g215
sg179
g216
sg181
S'250m'
p245
sg183
g1
(g88
g89
S'85.112.127.8'
tRp246
(dp247
g92
Nsg93
I00
sg94
Nsg95
I00
sg96
I00
sbsg186
S'85.112.127.230 - 85.112.127.249 - 85.112.127.194'
p248
sg188
g27
sg86
g216
sg189
(lp249
g1
(g88
g89
S'85.112.127.230'
tRp250
(dp251
g92
Nsg93
I00
sg94
Nsg95
I00
sg96
I00
sbag1
(g88
g89
S'85.112.127.249'
tRp252
(dp253
g92
Nsg93
I00
sg94
Nsg95
I00
sg96
I00
sbag1
(g88
g89
S'85.112.127.194'
tRp254
(dp255
g92
Nsg93
I00
sg94
Nsg95
I00
sg96
I00
sbasg193
g135
sbag1
(g170
g3
NtRp256
(dp257
g80
S'13.19'
p258
sg82
g1
(g88
g89
S'm9-eburg'
tRp259
(dp260
g92
Nsg93
I00
sg94
Nsg95
I00
sg96
I00
sbsg176
g1
(g88
g89
S'Up'
tRp261
(dp262
g92
Nsg93
I00
sg94
Nsg95
I00
sg96
I00
sbsg179
S'5.3m'
p263
sg181
S'2500m'
p264
sg183
g1
(g88
g89
S'85.112.127.9'
tRp265
(dp266
g92
Nsg93
I00
sg94
Nsg95
I00
sg96
I00
sbsg186
S'85.112.127.233'
p267
sg188
g30
sg86
I13193
sg189
(lp268
g1
(g88
g89
S'85.112.127.233'
tRp269
(dp270
g92
Nsg93
I00
sg94
Nsg95
I00
sg96
I00
sbasg193
g111
sbag1
(g170
g3
NtRp271
(dp272
g80
Nsg82
g1
(g88
g89
S'm9-m9-r2-eburg'
tRp273
(dp274
g92
Nsg93
I00
sg94
Nsg95
I00
sg96
I00
sbsg176
g215
sg179
g216
sg181
S'100m'
p275
sg183
g1
(g88
g89
S'85.112.127.9'
tRp276
(dp277
g92
Nsg93
I00
sg94
Nsg95
I00
sg96
I00
sbsg186
S'85.112.127.171 - 85.112.127.173'
p278
sg188
g30
sg86
g216
sg189
(lp279
g1
(g88
g89
S'85.112.127.171'
tRp280
(dp281
g92
Nsg93
I00
sg94
Nsg95
I00
sg96
I00
sbag1
(g88
g89
S'85.112.127.173'
tRp282
(dp283
g92
Nsg93
I00
sg94
Nsg95
I00
sg96
I00
sbasg193
g159
sbag1
(g170
g3
NtRp284
(dp285
g80
S'22.36'
p286
sg82
g1
(g88
g89
S'm9-chelab-eburg'
tRp287
(dp288
g92
Nsg93
I00
sg94
Nsg95
I00
sg96
I00
sbsg176
g1
(g88
g89
S'Up'
tRp289
(dp290
g92
Nsg93
I00
sg94
Nsg95
I00
sg96
I00
sbsg179
S'5.3m'
p291
sg181
S'4200m'
p292
sg183
g1
(g88
g89
S'85.112.127.9'
tRp293
(dp294
g92
Nsg93
I00
sg94
Nsg95
I00
sg96
I00
sbsg186
S'85.112.127.117 - 85.112.127.157'
p295
sg188
g30
sg86
I22362
sg189
(lp296
g1
(g88
g89
S'85.112.127.117'
tRp297
(dp298
g92
Nsg93
I00
sg94
Nsg95
I00
sg96
I00
sbag1
(g88
g89
S'85.112.127.157'
tRp299
(dp300
g92
Nsg93
I00
sg94
Nsg95
I00
sg96
I00
sbasg193
g103
sbag1
(g170
g3
NtRp301
(dp302
g80
Nsg82
g1
(g88
g89
S'm9-r0-m9-r2-kazan-ufa-chelab-eburg'
tRp303
(dp304
g92
Nsg93
I00
sg94
Nsg95
I00
sg96
I00
sbsg176
g1
(g88
g89
S'Dn'
tRp305
(dp306
g92
Nsg93
I00
sg94
Nsg95
I00
sg96
I00
sbsg179
S'0.0m'
p307
sg181
S'250m'
p308
sg183
g1
(g88
g89
S'85.112.127.9'
tRp309
(dp310
g92
Nsg93
I00
sg94
Nsg95
I00
sg96
I00
sbsg186
S'85.112.127.171 - 85.112.127.119 - 85.112.127.222 - 85.112.127.194 - 85.112.127.157'
p311
sg188
g30
sg86
S'Down'
p312
sg189
(lp313
g1
(g88
g89
S'85.112.127.171'
tRp314
(dp315
g92
Nsg93
I00
sg94
Nsg95
I00
sg96
I00
sbag1
(g88
g89
S'85.112.127.119'
tRp316
(dp317
g92
Nsg93
I00
sg94
Nsg95
I00
sg96
I00
sbag1
(g88
g89
S'85.112.127.222'
tRp318
(dp319
g92
Nsg93
I00
sg94
Nsg95
I00
sg96
I00
sbag1
(g88
g89
S'85.112.127.194'
tRp320
(dp321
g92
Nsg93
I00
sg94
Nsg95
I00
sg96
I00
sbag1
(g88
g89
S'85.112.127.157'
tRp322
(dp323
g92
Nsg93
I00
sg94
Nsg95
I00
sg96
I00
sbasg193
g159
sbag1
(g170
g3
NtRp324
(dp325
g80
S'3.46'
p326
sg82
g1
(g88
g89
S'm9-saratov-eburg_1'
tRp327
(dp328
g92
Nsg93
I00
sg94
Nsg95
I00
sg96
I00
sbsg176
g1
(g88
g89
S'Up'
tRp329
(dp330
g92
Nsg93
I00
sg94
Nsg95
I00
sg96
I00
sbsg179
S'4.9m'
p331
sg181
S'700m'
p332
sg183
g1
(g88
g89
S'85.112.127.9'
tRp333
(dp334
g92
Nsg93
I00
sg94
Nsg95
I00
sg96
I00
sbsg186
S'85.112.127.151 - 85.112.127.183'
p335
sg188
g30
sg86
I3461
sg189
(lp336
g1
(g88
g89
S'85.112.127.151'
tRp337
(dp338
g92
Nsg93
I00
sg94
Nsg95
I00
sg96
I00
sbag1
(g88
g89
S'85.112.127.183'
tRp339
(dp340
g92
Nsg93
I00
sg94
Nsg95
I00
sg96
I00
sbasg193
g119
sbag1
(g170
g3
NtRp341
(dp342
g80
S'0.56'
p343
sg82
g1
(g88
g89
S'm9-saratov-ufa-chelab-eburg_2'
tRp344
(dp345
g92
Nsg93
I00
sg94
Nsg95
I00
sg96
I00
sbsg176
g1
(g88
g89
S'Up'
tRp346
(dp347
g92
Nsg93
I00
sg94
Nsg95
I00
sg96
I00
sbsg179
S'5.6m'
p348
sg181
S'100m'
p349
sg183
g1
(g88
g89
S'85.112.127.9'
tRp350
(dp351
g92
Nsg93
I00
sg94
Nsg95
I00
sg96
I00
sbsg186
S'85.112.127.230 - 85.112.127.249 - 85.112.127.194 - 85.112.127.157'
p352
sg188
g30
sg86
I561
sg189
(lp353
g1
(g88
g89
S'85.112.127.230'
tRp354
(dp355
g92
Nsg93
I00
sg94
Nsg95
I00
sg96
I00
sbag1
(g88
g89
S'85.112.127.249'
tRp356
(dp357
g92
Nsg93
I00
sg94
Nsg95
I00
sg96
I00
sbag1
(g88
g89
S'85.112.127.194'
tRp358
(dp359
g92
Nsg93
I00
sg94
Nsg95
I00
sg96
I00
sbag1
(g88
g89
S'85.112.127.157'
tRp360
(dp361
g92
Nsg93
I00
sg94
Nsg95
I00
sg96
I00
sbasg193
g135
sbag1
(g170
g3
NtRp362
(dp363
g80
Nsg82
g1
(g88
g89
S'm9-samara-ufa-eburg_1'
tRp364
(dp365
g92
Nsg93
I00
sg94
Nsg95
I00
sg96
I00
sbsg176
g1
(g88
g89
S'Up'
tRp366
(dp367
g92
Nsg93
I00
sg94
Nsg95
I00
sg96
I00
sbsg179
g216
sg181
S'500m'
p368
sg183
g1
(g88
g89
S'85.112.127.9'
tRp369
(dp370
g92
Nsg93
I00
sg94
Nsg95
I00
sg96
I00
sbsg186
S'85.112.127.244 - 85.112.127.123 - 85.112.127.175'
p371
sg188
g30
sg86
g216
sg189
(lp372
g1
(g88
g89
S'85.112.127.244'
tRp373
(dp374
g92
Nsg93
I00
sg94
Nsg95
I00
sg96
I00
sbag1
(g88
g89
S'85.112.127.123'
tRp375
(dp376
g92
Nsg93
I00
sg94
Nsg95
I00
sg96
I00
sbag1
(g88
g89
S'85.112.127.175'
tRp377
(dp378
g92
Nsg93
I00
sg94
Nsg95
I00
sg96
I00
sbasg193
g151
sbag1
(g170
g3
NtRp379
(dp380
g80
S'2.53'
p381
sg82
g1
(g88
g89
S'm9-samara-chelab-eburg_2'
tRp382
(dp383
g92
Nsg93
I00
sg94
Nsg95
I00
sg96
I00
sbsg176
g1
(g88
g89
S'Up'
tRp384
(dp385
g92
Nsg93
I00
sg94
Nsg95
I00
sg96
I00
sbsg179
S'5.1m'
p386
sg181
S'500m'
p387
sg183
g1
(g88
g89
S'85.112.127.9'
tRp388
(dp389
g92
Nsg93
I00
sg94
Nsg95
I00
sg96
I00
sbsg186
S'85.112.127.246 - 85.112.127.251 - 85.112.127.157'
p390
sg188
g30
sg86
I2528
sg189
(lp391
g1
(g88
g89
S'85.112.127.246'
tRp392
(dp393
g92
Nsg93
I00
sg94
Nsg95
I00
sg96
I00
sbag1
(g88
g89
S'85.112.127.251'
tRp394
(dp395
g92
Nsg93
I00
sg94
Nsg95
I00
sg96
I00
sbag1
(g88
g89
S'85.112.127.157'
tRp396
(dp397
g92
Nsg93
I00
sg94
Nsg95
I00
sg96
I00
sbasg193
g143
sbag1
(g170
g3
NtRp398
(dp399
g80
S'5.98'
p400
sg82
g1
(g88
g89
S'm9-eburg-novosib'
tRp401
(dp402
g92
Nsg93
I00
sg94
Nsg95
I00
sg96
I00
sbsg176
g1
(g88
g89
S'Up'
tRp403
(dp404
g92
Nsg93
I00
sg94
Nsg95
I00
sg96
I00
sbsg179
S'2.0m'
p405
sg181
S'3000m'
p406
sg183
g1
(g88
g89
S'85.112.127.7'
tRp407
(dp408
g92
Nsg93
I00
sg94
Nsg95
I00
sg96
I00
sbsg186
S'85.112.127.233 - 85.112.127.221'
p409
sg188
g24
sg86
I5984
sg189
(lp410
g1
(g88
g89
S'85.112.127.233'
tRp411
(dp412
g92
Nsg93
I00
sg94
Nsg95
I00
sg96
I00
sbag1
(g88
g89
S'85.112.127.221'
tRp413
(dp414
g92
Nsg93
I00
sg94
Nsg95
I00
sg96
I00
sbasg193
g111
sbag1
(g170
g3
NtRp415
(dp416
g80
S'8.38'
p417
sg82
g1
(g88
g89
S'm9-chelab-novosib'
tRp418
(dp419
g92
Nsg93
I00
sg94
Nsg95
I00
sg96
I00
sbsg176
g1
(g88
g89
S'Up'
tRp420
(dp421
g92
Nsg93
I00
sg94
Nsg95
I00
sg96
I00
sbsg179
S'2.1m'
p422
sg181
S'4000m'
p423
sg183
g1
(g88
g89
S'85.112.127.7'
tRp424
(dp425
g92
Nsg93
I00
sg94
Nsg95
I00
sg96
I00
sbsg186
S'85.112.127.117 - 85.112.127.235'
p426
sg188
g24
sg86
I8382
sg189
(lp427
g1
(g88
g89
S'85.112.127.117'
tRp428
(dp429
g92
Nsg93
I00
sg94
Nsg95
I00
sg96
I00
sbag1
(g88
g89
S'85.112.127.235'
tRp430
(dp431
g92
Nsg93
I00
sg94
Nsg95
I00
sg96
I00
sbasg193
g103
sbag1
(g170
g3
NtRp432
(dp433
g80
S'4.62'
p434
sg82
g1
(g88
g89
S'm9-chelab-eburg-novosib'
tRp435
(dp436
g92
Nsg93
I00
sg94
Nsg95
I00
sg96
I00
sbsg176
g1
(g88
g89
S'Up'
tRp437
(dp438
g92
Nsg93
I00
sg94
Nsg95
I00
sg96
I00
sbsg179
S'2.1m'
p439
sg181
S'2200m'
p440
sg183
g1
(g88
g89
S'85.112.127.7'
tRp441
(dp442
g92
Nsg93
I00
sg94
Nsg95
I00
sg96
I00
sbsg186
S'85.112.127.117 - 85.112.127.157 - 85.112.127.221'
p443
sg188
g24
sg86
I4616
sg189
(lp444
g1
(g88
g89
S'85.112.127.117'
tRp445
(dp446
g92
Nsg93
I00
sg94
Nsg95
I00
sg96
I00
sbag1
(g88
g89
S'85.112.127.157'
tRp447
(dp448
g92
Nsg93
I00
sg94
Nsg95
I00
sg96
I00
sbag1
(g88
g89
S'85.112.127.221'
tRp449
(dp450
g92
Nsg93
I00
sg94
Nsg95
I00
sg96
I00
sbasg193
g103
sbag1
(g170
g3
NtRp451
(dp452
g80
Nsg82
g1
(g88
g89
S'm9-eburg-tumen-novosib_1'
tRp453
(dp454
g92
Nsg93
I00
sg94
Nsg95
I00
sg96
I00
sbsg176
g1
(g88
g89
S'Up'
tRp455
(dp456
g92
Nsg93
I00
sg94
Nsg95
I00
sg96
I00
sbsg179
g216
sg181
S'300m'
p457
sg183
g1
(g88
g89
S'85.112.127.7'
tRp458
(dp459
g92
Nsg93
I00
sg94
Nsg95
I00
sg96
I00
sbsg186
S'85.112.127.233 - 85.112.127.58  - 85.112.127.162'
p460
sg188
g24
sg86
g216
sg189
(lp461
g1
(g88
g89
S'85.112.127.233'
tRp462
(dp463
g92
Nsg93
I00
sg94
Nsg95
I00
sg96
I00
sbag1
(g88
g89
S'85.112.127.58'
tRp464
(dp465
g92
Nsg93
I00
sg94
Nsg95
I00
sg96
I00
sbag1
(g88
g89
S'85.112.127.162'
tRp466
(dp467
g92
Nsg93
I00
sg94
Nsg95
I00
sg96
I00
sbasg193
g111
sbag1
(g170
g3
NtRp468
(dp469
g80
Nsg82
g1
(g88
g89
S'm9-r0-m9-r2-nnov-eburg-novosib_sv'
tRp470
(dp471
g92
Nsg93
I00
sg94
Nsg95
I00
sg96
I00
sbsg176
g1
(g88
g89
S'Up'
tRp472
(dp473
g92
Nsg93
I00
sg94
Nsg95
I00
sg96
I00
sbsg179
g216
sg181
S'1000m'
p474
sg183
g1
(g88
g89
S'85.112.127.7'
tRp475
(dp476
g92
Nsg93
I00
sg94
Nsg95
I00
sg96
I00
sbsg186
S'85.112.127.171 - 85.112.127.177 - 85.112.127.98  - 85.112.127.221'
p477
sg188
g24
sg86
g216
sg189
(lp478
g1
(g88
g89
S'85.112.127.171'
tRp479
(dp480
g92
Nsg93
I00
sg94
Nsg95
I00
sg96
I00
sbag1
(g88
g89
S'85.112.127.177'
tRp481
(dp482
g92
Nsg93
I00
sg94
Nsg95
I00
sg96
I00
sbag1
(g88
g89
S'85.112.127.98'
tRp483
(dp484
g92
Nsg93
I00
sg94
Nsg95
I00
sg96
I00
sbag1
(g88
g89
S'85.112.127.221'
tRp485
(dp486
g92
Nsg93
I00
sg94
Nsg95
I00
sg96
I00
sbasg193
g159
sbag1
(g170
g3
NtRp487
(dp488
g80
Nsg82
g1
(g88
g89
S'm9-eburg-tumen-novosib_2'
tRp489
(dp490
g92
Nsg93
I00
sg94
Nsg95
I00
sg96
I00
sbsg176
g1
(g88
g89
S'Up'
tRp491
(dp492
g92
Nsg93
I00
sg94
Nsg95
I00
sg96
I00
sbsg179
g216
sg181
S'1000m'
p493
sg183
g1
(g88
g89
S'85.112.127.7'
tRp494
(dp495
g92
Nsg93
I00
sg94
Nsg95
I00
sg96
I00
sbsg186
S'85.112.127.233 - 85.112.127.58  - 85.112.127.61 '
p496
sg188
g24
sg86
g216
sg189
(lp497
g1
(g88
g89
S'85.112.127.233'
tRp498
(dp499
g92
Nsg93
I00
sg94
Nsg95
I00
sg96
I00
sbag1
(g88
g89
S'85.112.127.58'
tRp500
(dp501
g92
Nsg93
I00
sg94
Nsg95
I00
sg96
I00
sbag1
(g88
g89
S'85.112.127.61'
tRp502
(dp503
g92
Nsg93
I00
sg94
Nsg95
I00
sg96
I00
sbasg193
g111
sbag1
(g170
g3
NtRp504
(dp505
g80
Nsg82
g1
(g88
g89
S'm9-eburg-novosib_sv'
tRp506
(dp507
g92
Nsg93
I00
sg94
Nsg95
I00
sg96
I00
sbsg176
g1
(g88
g89
S'Up'
tRp508
(dp509
g92
Nsg93
I00
sg94
Nsg95
I00
sg96
I00
sbsg179
g216
sg181
S'1000m'
p510
sg183
g1
(g88
g89
S'85.112.127.7'
tRp511
(dp512
g92
Nsg93
I00
sg94
Nsg95
I00
sg96
I00
sbsg186
S'85.112.127.233 - 85.112.127.126'
p513
sg188
g24
sg86
g216
sg189
(lp514
g1
(g88
g89
S'85.112.127.233'
tRp515
(dp516
g92
Nsg93
I00
sg94
Nsg95
I00
sg96
I00
sbag1
(g88
g89
S'85.112.127.126'
tRp517
(dp518
g92
Nsg93
I00
sg94
Nsg95
I00
sg96
I00
sbasg193
g111
sbag1
(g170
g3
NtRp519
(dp520
g80
S'2.31'
p521
sg82
g1
(g88
g89
S'm9-cheboks1'
tRp522
(dp523
g92
Nsg93
I00
sg94
Nsg95
I00
sg96
I00
sbsg176
g1
(g88
g89
S'Up'
tRp524
(dp525
g92
Nsg93
I00
sg94
Nsg95
I00
sg96
I00
sbsg179
S'2.3m'
p526
sg181
S'1000m'
p527
sg183
g1
(g88
g89
S'85.112.127.13'
tRp528
(dp529
g92
Nsg93
I00
sg94
Nsg95
I00
sg96
I00
sbsg186
S'85.112.127.213'
p530
sg188
g42
sg86
I2311
sg189
(lp531
g1
(g88
g89
S'85.112.127.213'
tRp532
(dp533
g92
Nsg93
I00
sg94
Nsg95
I00
sg96
I00
sbasg193
g83
sbag1
(g170
g3
NtRp534
(dp535
g80
Nsg82
g1
(g88
g89
S'm9-r0-m9-r2-kazan-cheboks'
tRp536
(dp537
g92
Nsg93
I00
sg94
Nsg95
I00
sg96
I00
sbsg176
g1
(g88
g89
S'Dn'
tRp538
(dp539
g92
Nsg93
I00
sg94
Nsg95
I00
sg96
I00
sbsg179
S'0.0m'
p540
sg181
S'500m'
p541
sg183
g1
(g88
g89
S'85.112.127.13'
tRp542
(dp543
g92
Nsg93
I00
sg94
Nsg95
I00
sg96
I00
sbsg186
S'85.112.127.168 - 85.112.127.119 - 85.112.127.218'
p544
sg188
g42
sg86
g312
sg189
(lp545
g1
(g88
g89
S'85.112.127.168'
tRp546
(dp547
g92
Nsg93
I00
sg94
Nsg95
I00
sg96
I00
sbag1
(g88
g89
S'85.112.127.119'
tRp548
(dp549
g92
Nsg93
I00
sg94
Nsg95
I00
sg96
I00
sbag1
(g88
g89
S'85.112.127.218'
tRp550
(dp551
g92
Nsg93
I00
sg94
Nsg95
I00
sg96
I00
sbasg193
g127
sbag1
(g170
g3
NtRp552
(dp553
g80
S'4.29'
p554
sg82
g1
(g88
g89
S'm9-r0-m9-r2-nnov_sv'
tRp555
(dp556
g92
Nsg93
I00
sg94
Nsg95
I00
sg96
I00
sbsg176
g1
(g88
g89
S'Up'
tRp557
(dp558
g92
Nsg93
I00
sg94
Nsg95
I00
sg96
I00
sbsg179
S'42.9m'
p559
sg181
S'100m'
p560
sg183
g1
(g88
g89
S'85.112.127.10'
tRp561
(dp562
g92
Nsg93
I00
sg94
Nsg95
I00
sg96
I00
sbsg186
S'85.112.127.168 - 85.112.127.177'
p563
sg188
g33
sg86
I4294
sg189
(lp564
g1
(g88
g89
S'85.112.127.168'
tRp565
(dp566
g92
Nsg93
I00
sg94
Nsg95
I00
sg96
I00
sbag1
(g88
g89
S'85.112.127.177'
tRp567
(dp568
g92
Nsg93
I00
sg94
Nsg95
I00
sg96
I00
sbasg193
g127
sbag1
(g170
g3
NtRp569
(dp570
g80
Nsg82
g1
(g88
g89
S'm9-r0-m9-r2-nnov-sw0-r0'
tRp571
(dp572
g92
Nsg93
I00
sg94
Nsg95
I00
sg96
I00
sbsg176
g1
(g88
g89
S'Dn'
tRp573
(dp574
g92
Nsg93
I00
sg94
Nsg95
I00
sg96
I00
sbsg179
g216
sg181
S'100m'
p575
sg183
g1
(g88
g89
S'85.112.127.10'
tRp576
(dp577
g92
Nsg93
I00
sg94
Nsg95
I00
sg96
I00
sbsg186
S'85.112.127.168 - 85.112.127.241'
p578
sg188
g33
sg86
g216
sg189
(lp579
g1
(g88
g89
S'85.112.127.168'
tRp580
(dp581
g92
Nsg93
I00
sg94
Nsg95
I00
sg96
I00
sbag1
(g88
g89
S'85.112.127.241'
tRp582
(dp583
g92
Nsg93
I00
sg94
Nsg95
I00
sg96
I00
sbasg193
g127
sbag1
(g170
g3
NtRp584
(dp585
g80
Nsg82
g1
(g88
g89
S'm9-m9-r2-chelab-eburg'
tRp586
(dp587
g92
Nsg93
I00
sg94
Nsg95
I00
sg96
I00
sbsg176
g1
(g88
g89
S'Up'
tRp588
(dp589
g92
Nsg93
I00
sg94
Nsg95
I00
sg96
I00
sbsg179
g216
sg181
S'1200m'
p590
sg183
g1
(g88
g89
S'85.112.127.9'
tRp591
(dp592
g92
Nsg93
I00
sg94
Nsg95
I00
sg96
I00
sbsg186
S'85.112.127.171 - 85.112.127.155 - 85.112.127.157'
p593
sg188
g30
sg86
g216
sg189
(lp594
g1
(g88
g89
S'85.112.127.171'
tRp595
(dp596
g92
Nsg93
I00
sg94
Nsg95
I00
sg96
I00
sbag1
(g88
g89
S'85.112.127.155'
tRp597
(dp598
g92
Nsg93
I00
sg94
Nsg95
I00
sg96
I00
sbag1
(g88
g89
S'85.112.127.157'
tRp599
(dp600
g92
Nsg93
I00
sg94
Nsg95
I00
sg96
I00
sbasg193
g159
sbatRp601
(dp602
g166
NsS'zabbixapi'
p603
Nsbsg82
S'm9-r0'
p604
sS'last_parse'
p605
S'Tue Jan 26 12:35:36 2016'
p606
sb.