ccopy_reg
_reconstructor
p1
(c__main__
mRouter
p2
c__builtin__
object
p3
NtRp4
(dp5
S'neighbors'
p6
(lp7
(dp8
S'ip'
p9
S'85.112.127.2'
p10
sS'description'
p11
S'm9-r2'
p12
sa(dp13
g9
S'85.112.127.3'
p14
sg11
S'fft-r0_mx80'
p15
sa(dp16
g9
S'85.112.127.4'
p17
sg11
S'm9-r1'
p18
sa(dp19
g9
S'85.112.127.5'
p20
sg11
S'mr-r0'
p21
sa(dp22
g9
S'85.112.127.7'
p23
sg11
S'novosib-r0'
p24
sa(dp25
g9
S'85.112.127.8'
p26
sg11
S'chelab-r0'
p27
sa(dp28
g9
S'85.112.127.9'
p29
sg11
S'eburg-r0'
p30
sa(dp31
g9
S'85.112.127.10'
p32
sg11
S'nnov-r0'
p33
sa(dp34
g9
S'85.112.127.11'
p35
sg11
S'tumen-r0'
p36
sa(dp37
g9
S'85.112.127.12'
p38
sg11
S'rostov-r0'
p39
sa(dp40
g9
S'85.112.127.13'
p41
sg11
S'cheboks-r0'
p42
sa(dp43
g9
S'85.112.127.14'
p44
sg11
S'ufa-r0'
p45
sa(dp46
g9
S'85.112.127.15'
p47
sg11
S'piter-r0'
p48
sa(dp49
g9
S'85.112.127.16'
p50
sg11
S'samara-r0'
p51
sa(dp52
g9
S'85.112.127.17'
p53
sg11
S'kazan-r0'
p54
sa(dp55
g9
S'85.112.127.18'
p56
sg11
S'kiev-r0'
p57
sa(dp58
g9
S'85.112.127.19'
p59
sg11
S'zelen-r0'
p60
sa(dp61
g9
S'85.112.127.20'
p62
sg11
S'tagank-r0'
p63
sa(dp64
g9
S'85.112.127.21'
p65
sg11
S'saratov-r0'
p66
sa(dp67
g9
S'85.112.127.22'
p68
sg11
S'borov-r0'
p69
sa(dp70
g9
S'85.112.127.6'
p71
sg11
S'tumen-r0_mx240'
p72
sasS'intlist'
p73
g1
(c__main__
InterfaceList
p74
c__builtin__
list
p75
(lp76
g1
(c__main__
mInterface
p77
g3
NtRp78
(dp79
S'name'
p80
S'xe-1/2/2.910'
p81
sS'ldpout'
p82
I3271
sS'output'
p83
I7519
sS'speed'
p84
g1
(clxml.etree
_ElementStringResult
p85
c__builtin__
str
p86
S'10Gbps'
tRp87
(dp88
S'_parent'
p89
NsS'is_attribute'
p90
I00
sS'attrname'
p91
NsS'is_text'
p92
I00
sS'is_tail'
p93
I00
sbsS'rsvpout'
p94
I4248
sg11
g1
(g85
g86
S'cheboks-r0_1st'
tRp95
(dp96
g89
Nsg90
I00
sg91
Nsg92
I00
sg93
I00
sbsbag1
(g77
g3
NtRp97
(dp98
g80
S'ae4.849'
p99
sg82
I8981
sg83
I43759
sg84
g1
(g85
g86
S'120Gbps'
tRp100
(dp101
g89
Nsg90
I00
sg91
Nsg92
I00
sg93
I00
sbsg94
I34778
sg11
g1
(g85
g86
S'm9-chelab_sv'
tRp102
(dp103
g89
Nsg90
I00
sg91
Nsg92
I00
sg93
I00
sbsbag1
(g77
g3
NtRp104
(dp105
g80
S'ae3.933'
p106
sg82
I11134
sg83
I29326
sg84
g1
(g85
g86
S'50Gbps'
tRp107
(dp108
g89
Nsg90
I00
sg91
Nsg92
I00
sg93
I00
sbsg94
I18192
sg11
g1
(g85
g86
S'eburg-r0_t8'
tRp109
(dp110
g89
Nsg90
I00
sg91
Nsg92
I00
sg93
I00
sbsbag1
(g77
g3
NtRp111
(dp112
g80
S'xe-1/1/1.1843'
p113
sg82
I565
sg83
I4075
sg84
g1
(g85
g86
S'10Gbps'
tRp114
(dp115
g89
Nsg90
I00
sg91
Nsg92
I00
sg93
I00
sbsg94
I3510
sg11
g1
(g85
g86
S'saratov-r0_newt8'
tRp116
(dp117
g89
Nsg90
I00
sg91
Nsg92
I00
sg93
I00
sbsbag1
(g77
g3
NtRp118
(dp119
g80
S'ae2.1854'
p120
sg82
I-187
sg83
I4751
sg84
g1
(g85
g86
S'80Gbps'
tRp121
(dp122
g89
Nsg90
I00
sg91
Nsg92
I00
sg93
I00
sbsg94
I4938
sg11
g1
(g85
g86
S'm9-r2_1st'
tRp123
(dp124
g89
Nsg90
I00
sg91
Nsg92
I00
sg93
I00
sbsbag1
(g77
g3
NtRp125
(dp126
g80
S'ae2.1867'
p127
sg82
I28
sg83
I532
sg84
g1
(g85
g86
S'80Gbps'
tRp128
(dp129
g89
Nsg90
I00
sg91
Nsg92
I00
sg93
I00
sbsg94
I504
sg11
g1
(g85
g86
S'saratov-r0_2nd'
tRp130
(dp131
g89
Nsg90
I00
sg91
Nsg92
I00
sg93
I00
sbsbag1
(g77
g3
NtRp132
(dp133
g80
S'ae2.1866'
p134
sg82
I2707
sg83
I5177
sg84
g1
(g85
g86
S'80Gbps'
tRp135
(dp136
g89
Nsg90
I00
sg91
Nsg92
I00
sg93
I00
sbsg94
I2470
sg11
g1
(g85
g86
S'samara-r0_2nd_newt8'
tRp137
(dp138
g89
Nsg90
I00
sg91
Nsg92
I00
sg93
I00
sbsbag1
(g77
g3
NtRp139
(dp140
g80
S'ae2.1865'
p141
sg82
I5236
sg83
I5236
sg84
g1
(g85
g86
S'80Gbps'
tRp142
(dp143
g89
Nsg90
I00
sg91
Nsg92
I00
sg93
I00
sbsg94
I0
sg11
g1
(g85
g86
S'samara-r0_newt8'
tRp144
(dp145
g89
Nsg90
I00
sg91
Nsg92
I00
sg93
I00
sbsbag1
(g77
g3
NtRp146
(dp147
g80
S'ae6.1855'
p148
sg82
I9955
sg83
I9955
sg84
g1
(g85
g86
S'80Gbps'
tRp149
(dp150
g89
Nsg90
I00
sg91
Nsg92
I00
sg93
I00
sbsg94
I0
sg11
g1
(g85
g86
S'm9-r2_m9-r0_2'
tRp151
(dp152
g89
Nsg90
I00
sg91
Nsg92
I00
sg93
I00
sbsbatRp153
(dp154
S'router'
p155
NsS'lsplist'
p156
Nsbsg156
g1
(c__main__
LSPList
p157
g75
(lp158
g1
(c__main__
mLSP
p159
g3
NtRp160
(dp161
g80
g1
(g85
g86
S'm9-chelab_sv'
tRp162
(dp163
g89
Nsg90
I00
sg91
Nsg92
I00
sg93
I00
sbsS'rbandwidth'
p164
S'2.1m'
p165
sS'state'
p166
g1
(g85
g86
S'Up'
tRp167
(dp168
g89
Nsg90
I00
sg91
Nsg92
I00
sg93
I00
sbsS'to'
p169
g1
(g85
g86
S'85.112.127.8'
tRp170
(dp171
g89
Nsg90
I00
sg91
Nsg92
I00
sg93
I00
sbsS'bandwidth'
p172
S'2000m'
p173
sS'to_name'
p174
g27
sg83
I4158
sS'path'
p175
(lp176
g1
(g85
g86
S'85.112.127.117'
tRp177
(dp178
g89
Nsg90
I00
sg91
Nsg92
I00
sg93
I00
sbasS'nexthop_interface'
p179
g99
sbag1
(g159
g3
NtRp180
(dp181
g80
g1
(g85
g86
S'm9-eburg-chelab'
tRp182
(dp183
g89
Nsg90
I00
sg91
Nsg92
I00
sg93
I00
sbsg164
S'1.9m'
p184
sg166
g1
(g85
g86
S'Up'
tRp185
(dp186
g89
Nsg90
I00
sg91
Nsg92
I00
sg93
I00
sbsg169
g1
(g85
g86
S'85.112.127.8'
tRp187
(dp188
g89
Nsg90
I00
sg91
Nsg92
I00
sg93
I00
sbsg172
S'750m'
p189
sg174
g27
sg83
I1421
sg175
(lp190
g1
(g85
g86
S'85.112.127.233'
tRp191
(dp192
g89
Nsg90
I00
sg91
Nsg92
I00
sg93
I00
sbag1
(g85
g86
S'85.112.127.156'
tRp193
(dp194
g89
Nsg90
I00
sg91
Nsg92
I00
sg93
I00
sbasg179
g106
sbag1
(g159
g3
NtRp195
(dp196
g80
g1
(g85
g86
S'm9-samara-ufa-chelab_1'
tRp197
(dp198
g89
Nsg90
I00
sg91
Nsg92
I00
sg93
I00
sbsg164
S'None'
p199
sg166
S'Inactive'
p200
sg169
g1
(g85
g86
S'85.112.127.8'
tRp201
(dp202
g89
Nsg90
I00
sg91
Nsg92
I00
sg93
I00
sbsg172
S'1m'
p203
sg174
g27
sg83
g199
sg175
(lp204
g1
(g85
g86
S'85.112.127.244'
tRp205
(dp206
g89
Nsg90
I00
sg91
Nsg92
I00
sg93
I00
sbag1
(g85
g86
S'85.112.127.123'
tRp207
(dp208
g89
Nsg90
I00
sg91
Nsg92
I00
sg93
I00
sbag1
(g85
g86
S'85.112.127.194'
tRp209
(dp210
g89
Nsg90
I00
sg91
Nsg92
I00
sg93
I00
sbasg179
g141
sbag1
(g159
g3
NtRp211
(dp212
g80
g1
(g85
g86
S'm9-samara-chelab_2'
tRp213
(dp214
g89
Nsg90
I00
sg91
Nsg92
I00
sg93
I00
sbsg164
g199
sg166
g200
sg169
g1
(g85
g86
S'85.112.127.8'
tRp215
(dp216
g89
Nsg90
I00
sg91
Nsg92
I00
sg93
I00
sbsg172
S'500m'
p217
sg174
g27
sg83
g199
sg175
(lp218
g1
(g85
g86
S'85.112.127.246'
tRp219
(dp220
g89
Nsg90
I00
sg91
Nsg92
I00
sg93
I00
sbag1
(g85
g86
S'85.112.127.251'
tRp221
(dp222
g89
Nsg90
I00
sg91
Nsg92
I00
sg93
I00
sbasg179
g134
sbag1
(g159
g3
NtRp223
(dp224
g80
g1
(g85
g86
S'm9-saratov-ufa-chelab_2'
tRp225
(dp226
g89
Nsg90
I00
sg91
Nsg92
I00
sg93
I00
sbsg164
g199
sg166
g200
sg169
g1
(g85
g86
S'85.112.127.8'
tRp227
(dp228
g89
Nsg90
I00
sg91
Nsg92
I00
sg93
I00
sbsg172
S'250m'
p229
sg174
g27
sg83
g199
sg175
(lp230
g1
(g85
g86
S'85.112.127.230'
tRp231
(dp232
g89
Nsg90
I00
sg91
Nsg92
I00
sg93
I00
sbag1
(g85
g86
S'85.112.127.249'
tRp233
(dp234
g89
Nsg90
I00
sg91
Nsg92
I00
sg93
I00
sbag1
(g85
g86
S'85.112.127.194'
tRp235
(dp236
g89
Nsg90
I00
sg91
Nsg92
I00
sg93
I00
sbasg179
g127
sbag1
(g159
g3
NtRp237
(dp238
g80
g1
(g85
g86
S'm9-eburg'
tRp239
(dp240
g89
Nsg90
I00
sg91
Nsg92
I00
sg93
I00
sbsg164
S'4.9m'
p241
sg166
g1
(g85
g86
S'Up'
tRp242
(dp243
g89
Nsg90
I00
sg91
Nsg92
I00
sg93
I00
sbsg169
g1
(g85
g86
S'85.112.127.9'
tRp244
(dp245
g89
Nsg90
I00
sg91
Nsg92
I00
sg93
I00
sbsg172
S'2500m'
p246
sg174
g30
sg83
I12327
sg175
(lp247
g1
(g85
g86
S'85.112.127.233'
tRp248
(dp249
g89
Nsg90
I00
sg91
Nsg92
I00
sg93
I00
sbasg179
g106
sbag1
(g159
g3
NtRp250
(dp251
g80
g1
(g85
g86
S'm9-m9-r2-eburg'
tRp252
(dp253
g89
Nsg90
I00
sg91
Nsg92
I00
sg93
I00
sbsg164
g199
sg166
g200
sg169
g1
(g85
g86
S'85.112.127.9'
tRp254
(dp255
g89
Nsg90
I00
sg91
Nsg92
I00
sg93
I00
sbsg172
S'100m'
p256
sg174
g30
sg83
g199
sg175
(lp257
g1
(g85
g86
S'85.112.127.171'
tRp258
(dp259
g89
Nsg90
I00
sg91
Nsg92
I00
sg93
I00
sbag1
(g85
g86
S'85.112.127.173'
tRp260
(dp261
g89
Nsg90
I00
sg91
Nsg92
I00
sg93
I00
sbasg179
g148
sbag1
(g159
g3
NtRp262
(dp263
g80
g1
(g85
g86
S'm9-chelab-eburg'
tRp264
(dp265
g89
Nsg90
I00
sg91
Nsg92
I00
sg93
I00
sbsg164
S'5.1m'
p266
sg166
g1
(g85
g86
S'Up'
tRp267
(dp268
g89
Nsg90
I00
sg91
Nsg92
I00
sg93
I00
sbsg169
g1
(g85
g86
S'85.112.127.9'
tRp269
(dp270
g89
Nsg90
I00
sg91
Nsg92
I00
sg93
I00
sbsg172
S'4200m'
p271
sg174
g30
sg83
I21211
sg175
(lp272
g1
(g85
g86
S'85.112.127.117'
tRp273
(dp274
g89
Nsg90
I00
sg91
Nsg92
I00
sg93
I00
sbag1
(g85
g86
S'85.112.127.157'
tRp275
(dp276
g89
Nsg90
I00
sg91
Nsg92
I00
sg93
I00
sbasg179
g99
sbag1
(g159
g3
NtRp277
(dp278
g80
g1
(g85
g86
S'm9-r0-m9-r2-kazan-ufa-chelab-eburg'
tRp279
(dp280
g89
Nsg90
I00
sg91
Nsg92
I00
sg93
I00
sbsg164
S'0.0m'
p281
sg166
g1
(g85
g86
S'Dn'
tRp282
(dp283
g89
Nsg90
I00
sg91
Nsg92
I00
sg93
I00
sbsg169
g1
(g85
g86
S'85.112.127.9'
tRp284
(dp285
g89
Nsg90
I00
sg91
Nsg92
I00
sg93
I00
sbsg172
S'250m'
p286
sg174
g30
sg83
S'Down'
p287
sg175
(lp288
g1
(g85
g86
S'85.112.127.171'
tRp289
(dp290
g89
Nsg90
I00
sg91
Nsg92
I00
sg93
I00
sbag1
(g85
g86
S'85.112.127.119'
tRp291
(dp292
g89
Nsg90
I00
sg91
Nsg92
I00
sg93
I00
sbag1
(g85
g86
S'85.112.127.222'
tRp293
(dp294
g89
Nsg90
I00
sg91
Nsg92
I00
sg93
I00
sbag1
(g85
g86
S'85.112.127.194'
tRp295
(dp296
g89
Nsg90
I00
sg91
Nsg92
I00
sg93
I00
sbag1
(g85
g86
S'85.112.127.157'
tRp297
(dp298
g89
Nsg90
I00
sg91
Nsg92
I00
sg93
I00
sbasg179
g148
sbag1
(g159
g3
NtRp299
(dp300
g80
g1
(g85
g86
S'm9-saratov-eburg_1'
tRp301
(dp302
g89
Nsg90
I00
sg91
Nsg92
I00
sg93
I00
sbsg164
S'5.0m'
p303
sg166
g1
(g85
g86
S'Up'
tRp304
(dp305
g89
Nsg90
I00
sg91
Nsg92
I00
sg93
I00
sbsg169
g1
(g85
g86
S'85.112.127.9'
tRp306
(dp307
g89
Nsg90
I00
sg91
Nsg92
I00
sg93
I00
sbsg172
S'700m'
p308
sg174
g30
sg83
I3510
sg175
(lp309
g1
(g85
g86
S'85.112.127.151'
tRp310
(dp311
g89
Nsg90
I00
sg91
Nsg92
I00
sg93
I00
sbag1
(g85
g86
S'85.112.127.183'
tRp312
(dp313
g89
Nsg90
I00
sg91
Nsg92
I00
sg93
I00
sbasg179
g113
sbag1
(g159
g3
NtRp314
(dp315
g80
g1
(g85
g86
S'm9-saratov-ufa-chelab-eburg_2'
tRp316
(dp317
g89
Nsg90
I00
sg91
Nsg92
I00
sg93
I00
sbsg164
S'5.0m'
p318
sg166
g1
(g85
g86
S'Up'
tRp319
(dp320
g89
Nsg90
I00
sg91
Nsg92
I00
sg93
I00
sbsg169
g1
(g85
g86
S'85.112.127.9'
tRp321
(dp322
g89
Nsg90
I00
sg91
Nsg92
I00
sg93
I00
sbsg172
S'100m'
p323
sg174
g30
sg83
I504
sg175
(lp324
g1
(g85
g86
S'85.112.127.230'
tRp325
(dp326
g89
Nsg90
I00
sg91
Nsg92
I00
sg93
I00
sbag1
(g85
g86
S'85.112.127.249'
tRp327
(dp328
g89
Nsg90
I00
sg91
Nsg92
I00
sg93
I00
sbag1
(g85
g86
S'85.112.127.194'
tRp329
(dp330
g89
Nsg90
I00
sg91
Nsg92
I00
sg93
I00
sbag1
(g85
g86
S'85.112.127.157'
tRp331
(dp332
g89
Nsg90
I00
sg91
Nsg92
I00
sg93
I00
sbasg179
g127
sbag1
(g159
g3
NtRp333
(dp334
g80
g1
(g85
g86
S'm9-samara-ufa-eburg_1'
tRp335
(dp336
g89
Nsg90
I00
sg91
Nsg92
I00
sg93
I00
sbsg164
g199
sg166
g1
(g85
g86
S'Up'
tRp337
(dp338
g89
Nsg90
I00
sg91
Nsg92
I00
sg93
I00
sbsg169
g1
(g85
g86
S'85.112.127.9'
tRp339
(dp340
g89
Nsg90
I00
sg91
Nsg92
I00
sg93
I00
sbsg172
S'500m'
p341
sg174
g30
sg83
g199
sg175
(lp342
g1
(g85
g86
S'85.112.127.244'
tRp343
(dp344
g89
Nsg90
I00
sg91
Nsg92
I00
sg93
I00
sbag1
(g85
g86
S'85.112.127.123'
tRp345
(dp346
g89
Nsg90
I00
sg91
Nsg92
I00
sg93
I00
sbag1
(g85
g86
S'85.112.127.175'
tRp347
(dp348
g89
Nsg90
I00
sg91
Nsg92
I00
sg93
I00
sbasg179
g141
sbag1
(g159
g3
NtRp349
(dp350
g80
g1
(g85
g86
S'm9-samara-chelab-eburg_2'
tRp351
(dp352
g89
Nsg90
I00
sg91
Nsg92
I00
sg93
I00
sbsg164
S'4.9m'
p353
sg166
g1
(g85
g86
S'Up'
tRp354
(dp355
g89
Nsg90
I00
sg91
Nsg92
I00
sg93
I00
sbsg169
g1
(g85
g86
S'85.112.127.9'
tRp356
(dp357
g89
Nsg90
I00
sg91
Nsg92
I00
sg93
I00
sbsg172
S'500m'
p358
sg174
g30
sg83
I2470
sg175
(lp359
g1
(g85
g86
S'85.112.127.246'
tRp360
(dp361
g89
Nsg90
I00
sg91
Nsg92
I00
sg93
I00
sbag1
(g85
g86
S'85.112.127.251'
tRp362
(dp363
g89
Nsg90
I00
sg91
Nsg92
I00
sg93
I00
sbag1
(g85
g86
S'85.112.127.157'
tRp364
(dp365
g89
Nsg90
I00
sg91
Nsg92
I00
sg93
I00
sbasg179
g134
sbag1
(g159
g3
NtRp366
(dp367
g80
g1
(g85
g86
S'm9-eburg-novosib'
tRp368
(dp369
g89
Nsg90
I00
sg91
Nsg92
I00
sg93
I00
sbsg164
S'1.5m'
p370
sg166
g1
(g85
g86
S'Up'
tRp371
(dp372
g89
Nsg90
I00
sg91
Nsg92
I00
sg93
I00
sbsg169
g1
(g85
g86
S'85.112.127.7'
tRp373
(dp374
g89
Nsg90
I00
sg91
Nsg92
I00
sg93
I00
sbsg172
S'3000m'
p375
sg174
g24
sg83
I4444
sg175
(lp376
g1
(g85
g86
S'85.112.127.233'
tRp377
(dp378
g89
Nsg90
I00
sg91
Nsg92
I00
sg93
I00
sbag1
(g85
g86
S'85.112.127.221'
tRp379
(dp380
g89
Nsg90
I00
sg91
Nsg92
I00
sg93
I00
sbasg179
g106
sbag1
(g159
g3
NtRp381
(dp382
g80
g1
(g85
g86
S'm9-chelab-novosib'
tRp383
(dp384
g89
Nsg90
I00
sg91
Nsg92
I00
sg93
I00
sbsg164
S'1.5m'
p385
sg166
g1
(g85
g86
S'Up'
tRp386
(dp387
g89
Nsg90
I00
sg91
Nsg92
I00
sg93
I00
sbsg169
g1
(g85
g86
S'85.112.127.7'
tRp388
(dp389
g89
Nsg90
I00
sg91
Nsg92
I00
sg93
I00
sbsg172
S'4000m'
p390
sg174
g24
sg83
I6057
sg175
(lp391
g1
(g85
g86
S'85.112.127.117'
tRp392
(dp393
g89
Nsg90
I00
sg91
Nsg92
I00
sg93
I00
sbag1
(g85
g86
S'85.112.127.235'
tRp394
(dp395
g89
Nsg90
I00
sg91
Nsg92
I00
sg93
I00
sbasg179
g99
sbag1
(g159
g3
NtRp396
(dp397
g80
g1
(g85
g86
S'm9-chelab-eburg-novosib'
tRp398
(dp399
g89
Nsg90
I00
sg91
Nsg92
I00
sg93
I00
sbsg164
S'1.5m'
p400
sg166
g1
(g85
g86
S'Up'
tRp401
(dp402
g89
Nsg90
I00
sg91
Nsg92
I00
sg93
I00
sbsg169
g1
(g85
g86
S'85.112.127.7'
tRp403
(dp404
g89
Nsg90
I00
sg91
Nsg92
I00
sg93
I00
sbsg172
S'2200m'
p405
sg174
g24
sg83
I3352
sg175
(lp406
g1
(g85
g86
S'85.112.127.117'
tRp407
(dp408
g89
Nsg90
I00
sg91
Nsg92
I00
sg93
I00
sbag1
(g85
g86
S'85.112.127.157'
tRp409
(dp410
g89
Nsg90
I00
sg91
Nsg92
I00
sg93
I00
sbag1
(g85
g86
S'85.112.127.221'
tRp411
(dp412
g89
Nsg90
I00
sg91
Nsg92
I00
sg93
I00
sbasg179
g99
sbag1
(g159
g3
NtRp413
(dp414
g80
g1
(g85
g86
S'm9-eburg-tumen-novosib_1'
tRp415
(dp416
g89
Nsg90
I00
sg91
Nsg92
I00
sg93
I00
sbsg164
g199
sg166
g1
(g85
g86
S'Up'
tRp417
(dp418
g89
Nsg90
I00
sg91
Nsg92
I00
sg93
I00
sbsg169
g1
(g85
g86
S'85.112.127.7'
tRp419
(dp420
g89
Nsg90
I00
sg91
Nsg92
I00
sg93
I00
sbsg172
S'300m'
p421
sg174
g24
sg83
g199
sg175
(lp422
g1
(g85
g86
S'85.112.127.233'
tRp423
(dp424
g89
Nsg90
I00
sg91
Nsg92
I00
sg93
I00
sbag1
(g85
g86
S'85.112.127.58'
tRp425
(dp426
g89
Nsg90
I00
sg91
Nsg92
I00
sg93
I00
sbag1
(g85
g86
S'85.112.127.162'
tRp427
(dp428
g89
Nsg90
I00
sg91
Nsg92
I00
sg93
I00
sbasg179
g106
sbag1
(g159
g3
NtRp429
(dp430
g80
g1
(g85
g86
S'm9-r0-m9-r2-nnov-eburg-novosib_sv'
tRp431
(dp432
g89
Nsg90
I00
sg91
Nsg92
I00
sg93
I00
sbsg164
g199
sg166
g1
(g85
g86
S'Up'
tRp433
(dp434
g89
Nsg90
I00
sg91
Nsg92
I00
sg93
I00
sbsg169
g1
(g85
g86
S'85.112.127.7'
tRp435
(dp436
g89
Nsg90
I00
sg91
Nsg92
I00
sg93
I00
sbsg172
S'1000m'
p437
sg174
g24
sg83
g199
sg175
(lp438
g1
(g85
g86
S'85.112.127.171'
tRp439
(dp440
g89
Nsg90
I00
sg91
Nsg92
I00
sg93
I00
sbag1
(g85
g86
S'85.112.127.177'
tRp441
(dp442
g89
Nsg90
I00
sg91
Nsg92
I00
sg93
I00
sbag1
(g85
g86
S'85.112.127.98'
tRp443
(dp444
g89
Nsg90
I00
sg91
Nsg92
I00
sg93
I00
sbag1
(g85
g86
S'85.112.127.221'
tRp445
(dp446
g89
Nsg90
I00
sg91
Nsg92
I00
sg93
I00
sbasg179
g148
sbag1
(g159
g3
NtRp447
(dp448
g80
g1
(g85
g86
S'm9-eburg-tumen-novosib_2'
tRp449
(dp450
g89
Nsg90
I00
sg91
Nsg92
I00
sg93
I00
sbsg164
g199
sg166
g1
(g85
g86
S'Up'
tRp451
(dp452
g89
Nsg90
I00
sg91
Nsg92
I00
sg93
I00
sbsg169
g1
(g85
g86
S'85.112.127.7'
tRp453
(dp454
g89
Nsg90
I00
sg91
Nsg92
I00
sg93
I00
sbsg172
S'1000m'
p455
sg174
g24
sg83
g199
sg175
(lp456
g1
(g85
g86
S'85.112.127.233'
tRp457
(dp458
g89
Nsg90
I00
sg91
Nsg92
I00
sg93
I00
sbag1
(g85
g86
S'85.112.127.58'
tRp459
(dp460
g89
Nsg90
I00
sg91
Nsg92
I00
sg93
I00
sbag1
(g85
g86
S'85.112.127.61'
tRp461
(dp462
g89
Nsg90
I00
sg91
Nsg92
I00
sg93
I00
sbasg179
g106
sbag1
(g159
g3
NtRp463
(dp464
g80
g1
(g85
g86
S'm9-eburg-novosib_sv'
tRp465
(dp466
g89
Nsg90
I00
sg91
Nsg92
I00
sg93
I00
sbsg164
g199
sg166
g1
(g85
g86
S'Up'
tRp467
(dp468
g89
Nsg90
I00
sg91
Nsg92
I00
sg93
I00
sbsg169
g1
(g85
g86
S'85.112.127.7'
tRp469
(dp470
g89
Nsg90
I00
sg91
Nsg92
I00
sg93
I00
sbsg172
S'1000m'
p471
sg174
g24
sg83
g199
sg175
(lp472
g1
(g85
g86
S'85.112.127.233'
tRp473
(dp474
g89
Nsg90
I00
sg91
Nsg92
I00
sg93
I00
sbag1
(g85
g86
S'85.112.127.126'
tRp475
(dp476
g89
Nsg90
I00
sg91
Nsg92
I00
sg93
I00
sbasg179
g106
sbag1
(g159
g3
NtRp477
(dp478
g80
g1
(g85
g86
S'm9-cheboks1'
tRp479
(dp480
g89
Nsg90
I00
sg91
Nsg92
I00
sg93
I00
sbsg164
S'4.2m'
p481
sg166
g1
(g85
g86
S'Up'
tRp482
(dp483
g89
Nsg90
I00
sg91
Nsg92
I00
sg93
I00
sbsg169
g1
(g85
g86
S'85.112.127.13'
tRp484
(dp485
g89
Nsg90
I00
sg91
Nsg92
I00
sg93
I00
sbsg172
S'1000m'
p486
sg174
g42
sg83
I4248
sg175
(lp487
g1
(g85
g86
S'85.112.127.213'
tRp488
(dp489
g89
Nsg90
I00
sg91
Nsg92
I00
sg93
I00
sbasg179
g81
sbag1
(g159
g3
NtRp490
(dp491
g80
g1
(g85
g86
S'm9-r0-m9-r2-kazan-cheboks'
tRp492
(dp493
g89
Nsg90
I00
sg91
Nsg92
I00
sg93
I00
sbsg164
S'0.0m'
p494
sg166
g1
(g85
g86
S'Dn'
tRp495
(dp496
g89
Nsg90
I00
sg91
Nsg92
I00
sg93
I00
sbsg169
g1
(g85
g86
S'85.112.127.13'
tRp497
(dp498
g89
Nsg90
I00
sg91
Nsg92
I00
sg93
I00
sbsg172
S'500m'
p499
sg174
g42
sg83
g287
sg175
(lp500
g1
(g85
g86
S'85.112.127.168'
tRp501
(dp502
g89
Nsg90
I00
sg91
Nsg92
I00
sg93
I00
sbag1
(g85
g86
S'85.112.127.119'
tRp503
(dp504
g89
Nsg90
I00
sg91
Nsg92
I00
sg93
I00
sbag1
(g85
g86
S'85.112.127.218'
tRp505
(dp506
g89
Nsg90
I00
sg91
Nsg92
I00
sg93
I00
sbasg179
g120
sbag1
(g159
g3
NtRp507
(dp508
g80
g1
(g85
g86
S'm9-r0-m9-r2-nnov_sv'
tRp509
(dp510
g89
Nsg90
I00
sg91
Nsg92
I00
sg93
I00
sbsg164
S'49.4m'
p511
sg166
g1
(g85
g86
S'Up'
tRp512
(dp513
g89
Nsg90
I00
sg91
Nsg92
I00
sg93
I00
sbsg169
g1
(g85
g86
S'85.112.127.10'
tRp514
(dp515
g89
Nsg90
I00
sg91
Nsg92
I00
sg93
I00
sbsg172
S'100m'
p516
sg174
g33
sg83
I4938
sg175
(lp517
g1
(g85
g86
S'85.112.127.168'
tRp518
(dp519
g89
Nsg90
I00
sg91
Nsg92
I00
sg93
I00
sbag1
(g85
g86
S'85.112.127.177'
tRp520
(dp521
g89
Nsg90
I00
sg91
Nsg92
I00
sg93
I00
sbasg179
g120
sbag1
(g159
g3
NtRp522
(dp523
g80
g1
(g85
g86
S'm9-r0-m9-r2-nnov-sw0-r0'
tRp524
(dp525
g89
Nsg90
I00
sg91
Nsg92
I00
sg93
I00
sbsg164
g199
sg166
g1
(g85
g86
S'Dn'
tRp526
(dp527
g89
Nsg90
I00
sg91
Nsg92
I00
sg93
I00
sbsg169
g1
(g85
g86
S'85.112.127.10'
tRp528
(dp529
g89
Nsg90
I00
sg91
Nsg92
I00
sg93
I00
sbsg172
S'100m'
p530
sg174
g33
sg83
g199
sg175
(lp531
g1
(g85
g86
S'85.112.127.168'
tRp532
(dp533
g89
Nsg90
I00
sg91
Nsg92
I00
sg93
I00
sbag1
(g85
g86
S'85.112.127.241'
tRp534
(dp535
g89
Nsg90
I00
sg91
Nsg92
I00
sg93
I00
sbasg179
g120
sbag1
(g159
g3
NtRp536
(dp537
g80
g1
(g85
g86
S'm9-m9-r2-chelab-eburg'
tRp538
(dp539
g89
Nsg90
I00
sg91
Nsg92
I00
sg93
I00
sbsg164
g199
sg166
g1
(g85
g86
S'Up'
tRp540
(dp541
g89
Nsg90
I00
sg91
Nsg92
I00
sg93
I00
sbsg169
g1
(g85
g86
S'85.112.127.9'
tRp542
(dp543
g89
Nsg90
I00
sg91
Nsg92
I00
sg93
I00
sbsg172
S'1200m'
p544
sg174
g30
sg83
g199
sg175
(lp545
g1
(g85
g86
S'85.112.127.171'
tRp546
(dp547
g89
Nsg90
I00
sg91
Nsg92
I00
sg93
I00
sbag1
(g85
g86
S'85.112.127.155'
tRp548
(dp549
g89
Nsg90
I00
sg91
Nsg92
I00
sg93
I00
sbag1
(g85
g86
S'85.112.127.157'
tRp550
(dp551
g89
Nsg90
I00
sg91
Nsg92
I00
sg93
I00
sbasg179
g148
sbatRp552
(dp553
g155
NsS'zabbixapi'
p554
Nsbsg80
S'm9-r0'
p555
sS'last_parse'
p556
S'Mon Jan 25 21:27:55 2016'
p557
sb.