ccopy_reg
_reconstructor
p1
(c__main__
mRouter
p2
c__builtin__
object
p3
NtRp4
(dp5
S'neighbors'
p6
(lp7
(dp8
S'ip'
p9
S'85.112.127.2'
p10
sS'description'
p11
S'm9-r2'
p12
sa(dp13
g9
S'85.112.127.3'
p14
sg11
S'fft-r0_mx80'
p15
sa(dp16
g9
S'85.112.127.4'
p17
sg11
S'm9-r1'
p18
sa(dp19
g9
S'85.112.127.5'
p20
sg11
S'mr-r0'
p21
sa(dp22
g9
S'85.112.127.7'
p23
sg11
S'ams-r0'
p24
sa(dp25
g9
S'85.112.127.8'
p26
sg11
S'chelab-r0'
p27
sa(dp28
g9
S'85.112.127.9'
p29
sg11
S'eburg-r0'
p30
sa(dp31
g9
S'85.112.127.10'
p32
sg11
S'nnov-r0'
p33
sa(dp34
g9
S'85.112.127.11'
p35
sg11
S'tumen-r0'
p36
sa(dp37
g9
S'85.112.127.12'
p38
sg11
S'novosib-r0'
p39
sa(dp40
g9
S'85.112.127.13'
p41
sg11
S'cheboks-r0'
p42
sa(dp43
g9
S'85.112.127.14'
p44
sg11
S'ufa-r0'
p45
sa(dp46
g9
S'85.112.127.15'
p47
sg11
S'piter-r0'
p48
sa(dp49
g9
S'85.112.127.16'
p50
sg11
S'samara-r0'
p51
sa(dp52
g9
S'85.112.127.17'
p53
sg11
S'kazan-r0'
p54
sa(dp55
g9
S'85.112.127.18'
p56
sg11
S'kiev-r0'
p57
sa(dp58
g9
S'85.112.127.19'
p59
sg11
S'zelen-r0'
p60
sa(dp61
g9
S'85.112.127.20'
p62
sg11
S'tagank-r0'
p63
sa(dp64
g9
S'85.112.127.21'
p65
sg11
S'saratov-r0'
p66
sa(dp67
g9
S'85.112.127.22'
p68
sg11
S'borov-r0'
p69
sa(dp70
g9
S'85.112.127.6'
p71
sg11
S'tumen-r0_mx240'
p72
sasS'intlist'
p73
g1
(c__main__
InterfaceList
p74
c__builtin__
list
p75
(lp76
g1
(c__main__
mInterface
p77
g3
NtRp78
(dp79
S'name'
p80
S'xe-1/2/2.910'
p81
sS'ldpout'
p82
I3471
sS'output'
p83
I7804
sS'speed'
p84
g1
(clxml.etree
_ElementStringResult
p85
c__builtin__
str
p86
S'10Gbps'
tRp87
(dp88
S'_parent'
p89
NsS'is_attribute'
p90
I00
sS'attrname'
p91
NsS'is_text'
p92
I00
sS'is_tail'
p93
I00
sbsS'rsvpout'
p94
I4333
sg11
g1
(g85
g86
S'cheboks-r0_1st'
tRp95
(dp96
g89
Nsg90
I00
sg91
Nsg92
I00
sg93
I00
sbsbag1
(g77
g3
NtRp97
(dp98
g80
S'ae4.849'
p99
sg82
I10934
sg83
I50798
sg84
g1
(g85
g86
S'120Gbps'
tRp100
(dp101
g89
Nsg90
I00
sg91
Nsg92
I00
sg93
I00
sbsg94
I39864
sg11
g1
(g85
g86
S'm9-chelab_sv'
tRp102
(dp103
g89
Nsg90
I00
sg91
Nsg92
I00
sg93
I00
sbsbag1
(g77
g3
NtRp104
(dp105
g80
S'ae3.933'
p106
sg82
I12538
sg83
I33329
sg84
g1
(g85
g86
S'50Gbps'
tRp107
(dp108
g89
Nsg90
I00
sg91
Nsg92
I00
sg93
I00
sbsg94
I20791
sg11
g1
(g85
g86
S'eburg-r0_t8'
tRp109
(dp110
g89
Nsg90
I00
sg91
Nsg92
I00
sg93
I00
sbsbag1
(g77
g3
NtRp111
(dp112
g80
S'xe-1/1/1.1843'
p113
sg82
I413
sg83
I4396
sg84
g1
(g85
g86
S'10Gbps'
tRp114
(dp115
g89
Nsg90
I00
sg91
Nsg92
I00
sg93
I00
sbsg94
I3983
sg11
g1
(g85
g86
S'saratov-r0_newt8'
tRp116
(dp117
g89
Nsg90
I00
sg91
Nsg92
I00
sg93
I00
sbsbag1
(g77
g3
NtRp118
(dp119
g80
S'ae2.1854'
p120
sg82
I-113
sg83
I4394
sg84
g1
(g85
g86
S'80Gbps'
tRp121
(dp122
g89
Nsg90
I00
sg91
Nsg92
I00
sg93
I00
sbsg94
I4507
sg11
g1
(g85
g86
S'm9-r2_1st'
tRp123
(dp124
g89
Nsg90
I00
sg91
Nsg92
I00
sg93
I00
sbsbag1
(g77
g3
NtRp125
(dp126
g80
S'ae2.1867'
p127
sg82
I115
sg83
I740
sg84
g1
(g85
g86
S'80Gbps'
tRp128
(dp129
g89
Nsg90
I00
sg91
Nsg92
I00
sg93
I00
sbsg94
I625
sg11
g1
(g85
g86
S'saratov-r0_2nd'
tRp130
(dp131
g89
Nsg90
I00
sg91
Nsg92
I00
sg93
I00
sbsbag1
(g77
g3
NtRp132
(dp133
g80
S'ae2.1866'
p134
sg82
I2843
sg83
I5821
sg84
g1
(g85
g86
S'80Gbps'
tRp135
(dp136
g89
Nsg90
I00
sg91
Nsg92
I00
sg93
I00
sbsg94
I2978
sg11
g1
(g85
g86
S'samara-r0_2nd_newt8'
tRp137
(dp138
g89
Nsg90
I00
sg91
Nsg92
I00
sg93
I00
sbsbag1
(g77
g3
NtRp139
(dp140
g80
S'ae2.1865'
p141
sg82
I5987
sg83
I5987
sg84
g1
(g85
g86
S'80Gbps'
tRp142
(dp143
g89
Nsg90
I00
sg91
Nsg92
I00
sg93
I00
sbsg94
I0
sg11
g1
(g85
g86
S'samara-r0_newt8'
tRp144
(dp145
g89
Nsg90
I00
sg91
Nsg92
I00
sg93
I00
sbsbag1
(g77
g3
NtRp146
(dp147
g80
S'ae6.1855'
p148
sg82
I11308
sg83
I11308
sg84
g1
(g85
g86
S'80Gbps'
tRp149
(dp150
g89
Nsg90
I00
sg91
Nsg92
I00
sg93
I00
sbsg94
I0
sg11
g1
(g85
g86
S'm9-r2_m9-r0_2'
tRp151
(dp152
g89
Nsg90
I00
sg91
Nsg92
I00
sg93
I00
sbsbatRp153
(dp154
S'router'
p155
NsS'lsplist'
p156
Nsbsg156
g1
(c__main__
LSPList
p157
g75
(lp158
g1
(c__main__
mLSP
p159
g3
NtRp160
(dp161
g80
g1
(g85
g86
S'm9-chelab_sv'
tRp162
(dp163
g89
Nsg90
I00
sg91
Nsg92
I00
sg93
I00
sbsS'rbandwidth'
p164
S'2.2m'
p165
sS'state'
p166
g1
(g85
g86
S'Up'
tRp167
(dp168
g89
Nsg90
I00
sg91
Nsg92
I00
sg93
I00
sbsS'to'
p169
g1
(g85
g86
S'85.112.127.8'
tRp170
(dp171
g89
Nsg90
I00
sg91
Nsg92
I00
sg93
I00
sbsS'bandwidth'
p172
S'2000m'
p173
sS'path'
p174
(lp175
g1
(g85
g86
S'85.112.127.117'
tRp176
(dp177
g89
Nsg90
I00
sg91
Nsg92
I00
sg93
I00
sbasg83
I4353
sS'nexthop_interface'
p178
g99
sbag1
(g159
g3
NtRp179
(dp180
g80
g1
(g85
g86
S'm9-eburg-chelab'
tRp181
(dp182
g89
Nsg90
I00
sg91
Nsg92
I00
sg93
I00
sbsg164
S'2.1m'
p183
sg166
g1
(g85
g86
S'Up'
tRp184
(dp185
g89
Nsg90
I00
sg91
Nsg92
I00
sg93
I00
sbsg169
g1
(g85
g86
S'85.112.127.8'
tRp186
(dp187
g89
Nsg90
I00
sg91
Nsg92
I00
sg93
I00
sbsg172
S'750m'
p188
sg174
(lp189
g1
(g85
g86
S'85.112.127.233'
tRp190
(dp191
g89
Nsg90
I00
sg91
Nsg92
I00
sg93
I00
sbag1
(g85
g86
S'85.112.127.156'
tRp192
(dp193
g89
Nsg90
I00
sg91
Nsg92
I00
sg93
I00
sbasg83
I1574
sg178
g106
sbag1
(g159
g3
NtRp194
(dp195
g80
g1
(g85
g86
S'm9-samara-ufa-chelab_1'
tRp196
(dp197
g89
Nsg90
I00
sg91
Nsg92
I00
sg93
I00
sbsg164
S'None'
p198
sg166
S'Inactive'
p199
sg169
g1
(g85
g86
S'85.112.127.8'
tRp200
(dp201
g89
Nsg90
I00
sg91
Nsg92
I00
sg93
I00
sbsg172
S'1m'
p202
sg174
(lp203
g1
(g85
g86
S'85.112.127.244'
tRp204
(dp205
g89
Nsg90
I00
sg91
Nsg92
I00
sg93
I00
sbag1
(g85
g86
S'85.112.127.123'
tRp206
(dp207
g89
Nsg90
I00
sg91
Nsg92
I00
sg93
I00
sbag1
(g85
g86
S'85.112.127.194'
tRp208
(dp209
g89
Nsg90
I00
sg91
Nsg92
I00
sg93
I00
sbasg83
g198
sg178
g141
sbag1
(g159
g3
NtRp210
(dp211
g80
g1
(g85
g86
S'm9-samara-chelab_2'
tRp212
(dp213
g89
Nsg90
I00
sg91
Nsg92
I00
sg93
I00
sbsg164
g198
sg166
g199
sg169
g1
(g85
g86
S'85.112.127.8'
tRp214
(dp215
g89
Nsg90
I00
sg91
Nsg92
I00
sg93
I00
sbsg172
S'500m'
p216
sg174
(lp217
g1
(g85
g86
S'85.112.127.246'
tRp218
(dp219
g89
Nsg90
I00
sg91
Nsg92
I00
sg93
I00
sbag1
(g85
g86
S'85.112.127.251'
tRp220
(dp221
g89
Nsg90
I00
sg91
Nsg92
I00
sg93
I00
sbasg83
g198
sg178
g134
sbag1
(g159
g3
NtRp222
(dp223
g80
g1
(g85
g86
S'm9-saratov-ufa-chelab_2'
tRp224
(dp225
g89
Nsg90
I00
sg91
Nsg92
I00
sg93
I00
sbsg164
g198
sg166
g199
sg169
g1
(g85
g86
S'85.112.127.8'
tRp226
(dp227
g89
Nsg90
I00
sg91
Nsg92
I00
sg93
I00
sbsg172
S'250m'
p228
sg174
(lp229
g1
(g85
g86
S'85.112.127.230'
tRp230
(dp231
g89
Nsg90
I00
sg91
Nsg92
I00
sg93
I00
sbag1
(g85
g86
S'85.112.127.249'
tRp232
(dp233
g89
Nsg90
I00
sg91
Nsg92
I00
sg93
I00
sbag1
(g85
g86
S'85.112.127.194'
tRp234
(dp235
g89
Nsg90
I00
sg91
Nsg92
I00
sg93
I00
sbasg83
g198
sg178
g127
sbag1
(g159
g3
NtRp236
(dp237
g80
g1
(g85
g86
S'm9-eburg'
tRp238
(dp239
g89
Nsg90
I00
sg91
Nsg92
I00
sg93
I00
sbsg164
S'5.6m'
p240
sg166
g1
(g85
g86
S'Up'
tRp241
(dp242
g89
Nsg90
I00
sg91
Nsg92
I00
sg93
I00
sbsg169
g1
(g85
g86
S'85.112.127.9'
tRp243
(dp244
g89
Nsg90
I00
sg91
Nsg92
I00
sg93
I00
sbsg172
S'2500m'
p245
sg174
(lp246
g1
(g85
g86
S'85.112.127.233'
tRp247
(dp248
g89
Nsg90
I00
sg91
Nsg92
I00
sg93
I00
sbasg83
I13954
sg178
g106
sbag1
(g159
g3
NtRp249
(dp250
g80
g1
(g85
g86
S'm9-m9-r2-eburg'
tRp251
(dp252
g89
Nsg90
I00
sg91
Nsg92
I00
sg93
I00
sbsg164
g198
sg166
g199
sg169
g1
(g85
g86
S'85.112.127.9'
tRp253
(dp254
g89
Nsg90
I00
sg91
Nsg92
I00
sg93
I00
sbsg172
S'100m'
p255
sg174
(lp256
g1
(g85
g86
S'85.112.127.171'
tRp257
(dp258
g89
Nsg90
I00
sg91
Nsg92
I00
sg93
I00
sbag1
(g85
g86
S'85.112.127.173'
tRp259
(dp260
g89
Nsg90
I00
sg91
Nsg92
I00
sg93
I00
sbasg83
g198
sg178
g148
sbag1
(g159
g3
NtRp261
(dp262
g80
g1
(g85
g86
S'm9-chelab-eburg'
tRp263
(dp264
g89
Nsg90
I00
sg91
Nsg92
I00
sg93
I00
sbsg164
S'5.8m'
p265
sg166
g1
(g85
g86
S'Up'
tRp266
(dp267
g89
Nsg90
I00
sg91
Nsg92
I00
sg93
I00
sbsg169
g1
(g85
g86
S'85.112.127.9'
tRp268
(dp269
g89
Nsg90
I00
sg91
Nsg92
I00
sg93
I00
sbsg172
S'4200m'
p270
sg174
(lp271
g1
(g85
g86
S'85.112.127.117'
tRp272
(dp273
g89
Nsg90
I00
sg91
Nsg92
I00
sg93
I00
sbag1
(g85
g86
S'85.112.127.157'
tRp274
(dp275
g89
Nsg90
I00
sg91
Nsg92
I00
sg93
I00
sbasg83
I24236
sg178
g99
sbag1
(g159
g3
NtRp276
(dp277
g80
g1
(g85
g86
S'm9-r0-m9-r2-kazan-ufa-chelab-eburg'
tRp278
(dp279
g89
Nsg90
I00
sg91
Nsg92
I00
sg93
I00
sbsg164
S'0.0m'
p280
sg166
g1
(g85
g86
S'Dn'
tRp281
(dp282
g89
Nsg90
I00
sg91
Nsg92
I00
sg93
I00
sbsg169
g1
(g85
g86
S'85.112.127.9'
tRp283
(dp284
g89
Nsg90
I00
sg91
Nsg92
I00
sg93
I00
sbsg172
S'250m'
p285
sg174
(lp286
g1
(g85
g86
S'85.112.127.171'
tRp287
(dp288
g89
Nsg90
I00
sg91
Nsg92
I00
sg93
I00
sbag1
(g85
g86
S'85.112.127.119'
tRp289
(dp290
g89
Nsg90
I00
sg91
Nsg92
I00
sg93
I00
sbag1
(g85
g86
S'85.112.127.222'
tRp291
(dp292
g89
Nsg90
I00
sg91
Nsg92
I00
sg93
I00
sbag1
(g85
g86
S'85.112.127.194'
tRp293
(dp294
g89
Nsg90
I00
sg91
Nsg92
I00
sg93
I00
sbag1
(g85
g86
S'85.112.127.157'
tRp295
(dp296
g89
Nsg90
I00
sg91
Nsg92
I00
sg93
I00
sbasg83
S'Down'
p297
sg178
g148
sbag1
(g159
g3
NtRp298
(dp299
g80
g1
(g85
g86
S'm9-saratov-eburg_1'
tRp300
(dp301
g89
Nsg90
I00
sg91
Nsg92
I00
sg93
I00
sbsg164
S'5.7m'
p302
sg166
g1
(g85
g86
S'Up'
tRp303
(dp304
g89
Nsg90
I00
sg91
Nsg92
I00
sg93
I00
sbsg169
g1
(g85
g86
S'85.112.127.9'
tRp305
(dp306
g89
Nsg90
I00
sg91
Nsg92
I00
sg93
I00
sbsg172
S'700m'
p307
sg174
(lp308
g1
(g85
g86
S'85.112.127.151'
tRp309
(dp310
g89
Nsg90
I00
sg91
Nsg92
I00
sg93
I00
sbag1
(g85
g86
S'85.112.127.183'
tRp311
(dp312
g89
Nsg90
I00
sg91
Nsg92
I00
sg93
I00
sbasg83
I3983
sg178
g113
sbag1
(g159
g3
NtRp313
(dp314
g80
g1
(g85
g86
S'm9-saratov-ufa-chelab-eburg_2'
tRp315
(dp316
g89
Nsg90
I00
sg91
Nsg92
I00
sg93
I00
sbsg164
S'6.3m'
p317
sg166
g1
(g85
g86
S'Up'
tRp318
(dp319
g89
Nsg90
I00
sg91
Nsg92
I00
sg93
I00
sbsg169
g1
(g85
g86
S'85.112.127.9'
tRp320
(dp321
g89
Nsg90
I00
sg91
Nsg92
I00
sg93
I00
sbsg172
S'100m'
p322
sg174
(lp323
g1
(g85
g86
S'85.112.127.230'
tRp324
(dp325
g89
Nsg90
I00
sg91
Nsg92
I00
sg93
I00
sbag1
(g85
g86
S'85.112.127.249'
tRp326
(dp327
g89
Nsg90
I00
sg91
Nsg92
I00
sg93
I00
sbag1
(g85
g86
S'85.112.127.194'
tRp328
(dp329
g89
Nsg90
I00
sg91
Nsg92
I00
sg93
I00
sbag1
(g85
g86
S'85.112.127.157'
tRp330
(dp331
g89
Nsg90
I00
sg91
Nsg92
I00
sg93
I00
sbasg83
I625
sg178
g127
sbag1
(g159
g3
NtRp332
(dp333
g80
g1
(g85
g86
S'm9-samara-ufa-eburg_1'
tRp334
(dp335
g89
Nsg90
I00
sg91
Nsg92
I00
sg93
I00
sbsg164
g198
sg166
g1
(g85
g86
S'Up'
tRp336
(dp337
g89
Nsg90
I00
sg91
Nsg92
I00
sg93
I00
sbsg169
g1
(g85
g86
S'85.112.127.9'
tRp338
(dp339
g89
Nsg90
I00
sg91
Nsg92
I00
sg93
I00
sbsg172
S'500m'
p340
sg174
(lp341
g1
(g85
g86
S'85.112.127.244'
tRp342
(dp343
g89
Nsg90
I00
sg91
Nsg92
I00
sg93
I00
sbag1
(g85
g86
S'85.112.127.123'
tRp344
(dp345
g89
Nsg90
I00
sg91
Nsg92
I00
sg93
I00
sbag1
(g85
g86
S'85.112.127.175'
tRp346
(dp347
g89
Nsg90
I00
sg91
Nsg92
I00
sg93
I00
sbasg83
g198
sg178
g141
sbag1
(g159
g3
NtRp348
(dp349
g80
g1
(g85
g86
S'm9-samara-chelab-eburg_2'
tRp350
(dp351
g89
Nsg90
I00
sg91
Nsg92
I00
sg93
I00
sbsg164
S'6.0m'
p352
sg166
g1
(g85
g86
S'Up'
tRp353
(dp354
g89
Nsg90
I00
sg91
Nsg92
I00
sg93
I00
sbsg169
g1
(g85
g86
S'85.112.127.9'
tRp355
(dp356
g89
Nsg90
I00
sg91
Nsg92
I00
sg93
I00
sbsg172
S'500m'
p357
sg174
(lp358
g1
(g85
g86
S'85.112.127.246'
tRp359
(dp360
g89
Nsg90
I00
sg91
Nsg92
I00
sg93
I00
sbag1
(g85
g86
S'85.112.127.251'
tRp361
(dp362
g89
Nsg90
I00
sg91
Nsg92
I00
sg93
I00
sbag1
(g85
g86
S'85.112.127.157'
tRp363
(dp364
g89
Nsg90
I00
sg91
Nsg92
I00
sg93
I00
sbasg83
I2978
sg178
g134
sbag1
(g159
g3
NtRp365
(dp366
g80
g1
(g85
g86
S'm9-eburg-novosib'
tRp367
(dp368
g89
Nsg90
I00
sg91
Nsg92
I00
sg93
I00
sbsg164
S'1.8m'
p369
sg166
g1
(g85
g86
S'Up'
tRp370
(dp371
g89
Nsg90
I00
sg91
Nsg92
I00
sg93
I00
sbsg169
g1
(g85
g86
S'85.112.127.7'
tRp372
(dp373
g89
Nsg90
I00
sg91
Nsg92
I00
sg93
I00
sbsg172
S'3000m'
p374
sg174
(lp375
g1
(g85
g86
S'85.112.127.233'
tRp376
(dp377
g89
Nsg90
I00
sg91
Nsg92
I00
sg93
I00
sbag1
(g85
g86
S'85.112.127.221'
tRp378
(dp379
g89
Nsg90
I00
sg91
Nsg92
I00
sg93
I00
sbasg83
I5263
sg178
g106
sbag1
(g159
g3
NtRp380
(dp381
g80
g1
(g85
g86
S'm9-chelab-novosib'
tRp382
(dp383
g89
Nsg90
I00
sg91
Nsg92
I00
sg93
I00
sbsg164
S'1.8m'
p384
sg166
g1
(g85
g86
S'Up'
tRp385
(dp386
g89
Nsg90
I00
sg91
Nsg92
I00
sg93
I00
sbsg169
g1
(g85
g86
S'85.112.127.7'
tRp387
(dp388
g89
Nsg90
I00
sg91
Nsg92
I00
sg93
I00
sbsg172
S'4000m'
p389
sg174
(lp390
g1
(g85
g86
S'85.112.127.117'
tRp391
(dp392
g89
Nsg90
I00
sg91
Nsg92
I00
sg93
I00
sbag1
(g85
g86
S'85.112.127.235'
tRp393
(dp394
g89
Nsg90
I00
sg91
Nsg92
I00
sg93
I00
sbasg83
I7366
sg178
g99
sbag1
(g159
g3
NtRp395
(dp396
g80
g1
(g85
g86
S'm9-chelab-eburg-novosib'
tRp397
(dp398
g89
Nsg90
I00
sg91
Nsg92
I00
sg93
I00
sbsg164
S'1.8m'
p399
sg166
g1
(g85
g86
S'Up'
tRp400
(dp401
g89
Nsg90
I00
sg91
Nsg92
I00
sg93
I00
sbsg169
g1
(g85
g86
S'85.112.127.7'
tRp402
(dp403
g89
Nsg90
I00
sg91
Nsg92
I00
sg93
I00
sbsg172
S'2200m'
p404
sg174
(lp405
g1
(g85
g86
S'85.112.127.117'
tRp406
(dp407
g89
Nsg90
I00
sg91
Nsg92
I00
sg93
I00
sbag1
(g85
g86
S'85.112.127.157'
tRp408
(dp409
g89
Nsg90
I00
sg91
Nsg92
I00
sg93
I00
sbag1
(g85
g86
S'85.112.127.221'
tRp410
(dp411
g89
Nsg90
I00
sg91
Nsg92
I00
sg93
I00
sbasg83
I3909
sg178
g99
sbag1
(g159
g3
NtRp412
(dp413
g80
g1
(g85
g86
S'm9-eburg-tumen-novosib_1'
tRp414
(dp415
g89
Nsg90
I00
sg91
Nsg92
I00
sg93
I00
sbsg164
g198
sg166
g1
(g85
g86
S'Up'
tRp416
(dp417
g89
Nsg90
I00
sg91
Nsg92
I00
sg93
I00
sbsg169
g1
(g85
g86
S'85.112.127.7'
tRp418
(dp419
g89
Nsg90
I00
sg91
Nsg92
I00
sg93
I00
sbsg172
S'300m'
p420
sg174
(lp421
g1
(g85
g86
S'85.112.127.233'
tRp422
(dp423
g89
Nsg90
I00
sg91
Nsg92
I00
sg93
I00
sbag1
(g85
g86
S'85.112.127.58'
tRp424
(dp425
g89
Nsg90
I00
sg91
Nsg92
I00
sg93
I00
sbag1
(g85
g86
S'85.112.127.162'
tRp426
(dp427
g89
Nsg90
I00
sg91
Nsg92
I00
sg93
I00
sbasg83
g198
sg178
g106
sbag1
(g159
g3
NtRp428
(dp429
g80
g1
(g85
g86
S'm9-r0-m9-r2-nnov-eburg-novosib_sv'
tRp430
(dp431
g89
Nsg90
I00
sg91
Nsg92
I00
sg93
I00
sbsg164
g198
sg166
g1
(g85
g86
S'Up'
tRp432
(dp433
g89
Nsg90
I00
sg91
Nsg92
I00
sg93
I00
sbsg169
g1
(g85
g86
S'85.112.127.7'
tRp434
(dp435
g89
Nsg90
I00
sg91
Nsg92
I00
sg93
I00
sbsg172
S'1000m'
p436
sg174
(lp437
g1
(g85
g86
S'85.112.127.171'
tRp438
(dp439
g89
Nsg90
I00
sg91
Nsg92
I00
sg93
I00
sbag1
(g85
g86
S'85.112.127.177'
tRp440
(dp441
g89
Nsg90
I00
sg91
Nsg92
I00
sg93
I00
sbag1
(g85
g86
S'85.112.127.98'
tRp442
(dp443
g89
Nsg90
I00
sg91
Nsg92
I00
sg93
I00
sbag1
(g85
g86
S'85.112.127.221'
tRp444
(dp445
g89
Nsg90
I00
sg91
Nsg92
I00
sg93
I00
sbasg83
g198
sg178
g148
sbag1
(g159
g3
NtRp446
(dp447
g80
g1
(g85
g86
S'm9-eburg-tumen-novosib_2'
tRp448
(dp449
g89
Nsg90
I00
sg91
Nsg92
I00
sg93
I00
sbsg164
g198
sg166
g1
(g85
g86
S'Up'
tRp450
(dp451
g89
Nsg90
I00
sg91
Nsg92
I00
sg93
I00
sbsg169
g1
(g85
g86
S'85.112.127.7'
tRp452
(dp453
g89
Nsg90
I00
sg91
Nsg92
I00
sg93
I00
sbsg172
S'1000m'
p454
sg174
(lp455
g1
(g85
g86
S'85.112.127.233'
tRp456
(dp457
g89
Nsg90
I00
sg91
Nsg92
I00
sg93
I00
sbag1
(g85
g86
S'85.112.127.58'
tRp458
(dp459
g89
Nsg90
I00
sg91
Nsg92
I00
sg93
I00
sbag1
(g85
g86
S'85.112.127.61'
tRp460
(dp461
g89
Nsg90
I00
sg91
Nsg92
I00
sg93
I00
sbasg83
g198
sg178
g106
sbag1
(g159
g3
NtRp462
(dp463
g80
g1
(g85
g86
S'm9-eburg-novosib_sv'
tRp464
(dp465
g89
Nsg90
I00
sg91
Nsg92
I00
sg93
I00
sbsg164
g198
sg166
g1
(g85
g86
S'Up'
tRp466
(dp467
g89
Nsg90
I00
sg91
Nsg92
I00
sg93
I00
sbsg169
g1
(g85
g86
S'85.112.127.7'
tRp468
(dp469
g89
Nsg90
I00
sg91
Nsg92
I00
sg93
I00
sbsg172
S'1000m'
p470
sg174
(lp471
g1
(g85
g86
S'85.112.127.233'
tRp472
(dp473
g89
Nsg90
I00
sg91
Nsg92
I00
sg93
I00
sbag1
(g85
g86
S'85.112.127.126'
tRp474
(dp475
g89
Nsg90
I00
sg91
Nsg92
I00
sg93
I00
sbasg83
g198
sg178
g106
sbag1
(g159
g3
NtRp476
(dp477
g80
g1
(g85
g86
S'm9-cheboks1'
tRp478
(dp479
g89
Nsg90
I00
sg91
Nsg92
I00
sg93
I00
sbsg164
S'4.3m'
p480
sg166
g1
(g85
g86
S'Up'
tRp481
(dp482
g89
Nsg90
I00
sg91
Nsg92
I00
sg93
I00
sbsg169
g1
(g85
g86
S'85.112.127.13'
tRp483
(dp484
g89
Nsg90
I00
sg91
Nsg92
I00
sg93
I00
sbsg172
S'1000m'
p485
sg174
(lp486
g1
(g85
g86
S'85.112.127.213'
tRp487
(dp488
g89
Nsg90
I00
sg91
Nsg92
I00
sg93
I00
sbasg83
I4333
sg178
g81
sbag1
(g159
g3
NtRp489
(dp490
g80
g1
(g85
g86
S'm9-r0-m9-r2-kazan-cheboks'
tRp491
(dp492
g89
Nsg90
I00
sg91
Nsg92
I00
sg93
I00
sbsg164
S'0.0m'
p493
sg166
g1
(g85
g86
S'Dn'
tRp494
(dp495
g89
Nsg90
I00
sg91
Nsg92
I00
sg93
I00
sbsg169
g1
(g85
g86
S'85.112.127.13'
tRp496
(dp497
g89
Nsg90
I00
sg91
Nsg92
I00
sg93
I00
sbsg172
S'500m'
p498
sg174
(lp499
g1
(g85
g86
S'85.112.127.168'
tRp500
(dp501
g89
Nsg90
I00
sg91
Nsg92
I00
sg93
I00
sbag1
(g85
g86
S'85.112.127.119'
tRp502
(dp503
g89
Nsg90
I00
sg91
Nsg92
I00
sg93
I00
sbag1
(g85
g86
S'85.112.127.218'
tRp504
(dp505
g89
Nsg90
I00
sg91
Nsg92
I00
sg93
I00
sbasg83
g297
sg178
g120
sbag1
(g159
g3
NtRp506
(dp507
g80
g1
(g85
g86
S'm9-r0-m9-r2-nnov_sv'
tRp508
(dp509
g89
Nsg90
I00
sg91
Nsg92
I00
sg93
I00
sbsg164
S'45.1m'
p510
sg166
g1
(g85
g86
S'Up'
tRp511
(dp512
g89
Nsg90
I00
sg91
Nsg92
I00
sg93
I00
sbsg169
g1
(g85
g86
S'85.112.127.10'
tRp513
(dp514
g89
Nsg90
I00
sg91
Nsg92
I00
sg93
I00
sbsg172
S'100m'
p515
sg174
(lp516
g1
(g85
g86
S'85.112.127.168'
tRp517
(dp518
g89
Nsg90
I00
sg91
Nsg92
I00
sg93
I00
sbag1
(g85
g86
S'85.112.127.177'
tRp519
(dp520
g89
Nsg90
I00
sg91
Nsg92
I00
sg93
I00
sbasg83
I4507
sg178
g120
sbag1
(g159
g3
NtRp521
(dp522
g80
g1
(g85
g86
S'm9-r0-m9-r2-nnov-sw0-r0'
tRp523
(dp524
g89
Nsg90
I00
sg91
Nsg92
I00
sg93
I00
sbsg164
g198
sg166
g1
(g85
g86
S'Dn'
tRp525
(dp526
g89
Nsg90
I00
sg91
Nsg92
I00
sg93
I00
sbsg169
g1
(g85
g86
S'85.112.127.10'
tRp527
(dp528
g89
Nsg90
I00
sg91
Nsg92
I00
sg93
I00
sbsg172
S'100m'
p529
sg174
(lp530
g1
(g85
g86
S'85.112.127.168'
tRp531
(dp532
g89
Nsg90
I00
sg91
Nsg92
I00
sg93
I00
sbag1
(g85
g86
S'85.112.127.241'
tRp533
(dp534
g89
Nsg90
I00
sg91
Nsg92
I00
sg93
I00
sbasg83
g198
sg178
g120
sbag1
(g159
g3
NtRp535
(dp536
g80
g1
(g85
g86
S'm9-m9-r2-chelab-eburg'
tRp537
(dp538
g89
Nsg90
I00
sg91
Nsg92
I00
sg93
I00
sbsg164
g198
sg166
g1
(g85
g86
S'Up'
tRp539
(dp540
g89
Nsg90
I00
sg91
Nsg92
I00
sg93
I00
sbsg169
g1
(g85
g86
S'85.112.127.9'
tRp541
(dp542
g89
Nsg90
I00
sg91
Nsg92
I00
sg93
I00
sbsg172
S'1200m'
p543
sg174
(lp544
g1
(g85
g86
S'85.112.127.171'
tRp545
(dp546
g89
Nsg90
I00
sg91
Nsg92
I00
sg93
I00
sbag1
(g85
g86
S'85.112.127.155'
tRp547
(dp548
g89
Nsg90
I00
sg91
Nsg92
I00
sg93
I00
sbag1
(g85
g86
S'85.112.127.157'
tRp549
(dp550
g89
Nsg90
I00
sg91
Nsg92
I00
sg93
I00
sbasg83
g198
sg178
g148
sbatRp551
(dp552
g155
NsS'zabbixapi'
p553
Nsbsg80
S'm9-r0'
p554
sS'last_parse'
p555
S'Mon Jan 25 20:54:09 2016'
p556
sb.