ccopy_reg
_reconstructor
p1
(c__main__
mRouter
p2
c__builtin__
object
p3
NtRp4
(dp5
S'neighbors'
p6
(lp7
(dp8
S'ip'
p9
S'85.112.127.2'
p10
sS'description'
p11
S'm9-r2'
p12
sa(dp13
g9
S'85.112.127.3'
p14
sg11
S'fft-r0_mx80'
p15
sa(dp16
g9
S'85.112.127.4'
p17
sg11
S'm9-r1'
p18
sa(dp19
g9
S'85.112.127.5'
p20
sg11
S'mr-r0'
p21
sa(dp22
g9
S'85.112.127.6'
p23
sg11
S'tumen-r0_mx240'
p24
sa(dp25
g9
S'85.112.127.7'
p26
sg11
S'novosib-r0'
p27
sa(dp28
g9
S'85.112.127.8'
p29
sg11
S'chelab-r0'
p30
sa(dp31
g9
S'85.112.127.9'
p32
sg11
S'eburg-r0'
p33
sa(dp34
g9
S'85.112.127.10'
p35
sg11
S'nnov-r0'
p36
sa(dp37
g9
S'85.112.127.11'
p38
sg11
S'ufa-r0'
p39
sa(dp40
g9
S'85.112.127.12'
p41
sg11
S'rostov-r0'
p42
sa(dp43
g9
S'85.112.127.13'
p44
sg11
S'cheboks-r0'
p45
sa(dp46
g9
S'85.112.127.14'
p47
sg11
S'piter-r0_new'
p48
sa(dp49
g9
S'85.112.127.15'
p50
sg11
S'piter-r0'
p51
sa(dp52
g9
S'85.112.127.16'
p53
sg11
S'samara-r0'
p54
sa(dp55
g9
S'85.112.127.17'
p56
sg11
S'kazan-r0'
p57
sa(dp58
g9
S'85.112.127.18'
p59
sg11
S'kiev-r0'
p60
sa(dp61
g9
S'85.112.127.19'
p62
sg11
S'zelen-r0'
p63
sa(dp64
g9
S'85.112.127.20'
p65
sg11
S'tagank-r0'
p66
sa(dp67
g9
S'85.112.127.21'
p68
sg11
S'saratov-r0'
p69
sa(dp70
g9
S'85.112.127.22'
p71
sg11
S'borov-r0'
p72
sasS'intlist'
p73
g1
(c__main__
InterfaceList
p74
c__builtin__
list
p75
(lp76
g1
(c__main__
mInterface
p77
g3
NtRp78
(dp79
S'output_gbps'
p80
S'2.67'
p81
sS'name'
p82
S'xe-1/2/2.910'
p83
sS'utilization'
p84
I26
sS'ldpout'
p85
I1580
sS'output'
p86
I2672
sS'speed'
p87
g1
(clxml.etree
_ElementStringResult
p88
c__builtin__
str
p89
S'10Gbps'
tRp90
(dp91
S'_parent'
p92
NsS'is_attribute'
p93
I00
sS'attrname'
p94
NsS'is_text'
p95
I00
sS'is_tail'
p96
I00
sbsS'rsvpout'
p97
I1092
sg11
g1
(g88
g89
S'cheboks-r0_1st'
tRp98
(dp99
g92
Nsg93
I00
sg94
Nsg95
I00
sg96
I00
sbsbag1
(g77
g3
NtRp100
(dp101
g80
S'12.31'
p102
sg82
S'ae4.849'
p103
sg84
I15
sg85
I1500
sg86
I12308
sg87
g1
(g88
g89
S'80Gbps'
tRp104
(dp105
g92
Nsg93
I00
sg94
Nsg95
I00
sg96
I00
sbsg97
I10808
sg11
g1
(g88
g89
S'm9-chelab_sv'
tRp106
(dp107
g92
Nsg93
I00
sg94
Nsg95
I00
sg96
I00
sbsbag1
(g77
g3
NtRp108
(dp109
g80
S'13.31'
p110
sg82
S'ae3.933'
p111
sg84
I8
sg85
I13315
sg86
I13315
sg87
g1
(g88
g89
S'150Gbps'
tRp112
(dp113
g92
Nsg93
I00
sg94
Nsg95
I00
sg96
I00
sbsg97
I0
sg11
g1
(g88
g89
S'ufa-r0'
tRp114
(dp115
g92
Nsg93
I00
sg94
Nsg95
I00
sg96
I00
sbsbag1
(g77
g3
NtRp116
(dp117
g80
S'1.31'
p118
sg82
S'xe-1/1/1.1843'
p119
sg84
I13
sg85
I-3
sg86
I1310
sg87
g1
(g88
g89
S'10Gbps'
tRp120
(dp121
g92
Nsg93
I00
sg94
Nsg95
I00
sg96
I00
sbsg97
I1313
sg11
g1
(g88
g89
S'saratov-r0_newt8'
tRp122
(dp123
g92
Nsg93
I00
sg94
Nsg95
I00
sg96
I00
sbsbag1
(g77
g3
NtRp124
(dp125
g80
S'3.16'
p126
sg82
S'ae2.1854'
p127
sg84
I3
sg85
I1258
sg86
I3156
sg87
g1
(g88
g89
S'80Gbps'
tRp128
(dp129
g92
Nsg93
I00
sg94
Nsg95
I00
sg96
I00
sbsg97
I1898
sg11
g1
(g88
g89
S'm9-r2_1st'
tRp130
(dp131
g92
Nsg93
I00
sg94
Nsg95
I00
sg96
I00
sbsbag1
(g77
g3
NtRp132
(dp133
g80
S'0.17'
p134
sg82
S'ae2.1867'
p135
sg84
I0
sg85
I6
sg86
I166
sg87
g1
(g88
g89
S'80Gbps'
tRp136
(dp137
g92
Nsg93
I00
sg94
Nsg95
I00
sg96
I00
sbsg97
I160
sg11
g1
(g88
g89
S'saratov-r0_2nd'
tRp138
(dp139
g92
Nsg93
I00
sg94
Nsg95
I00
sg96
I00
sbsbag1
(g77
g3
NtRp140
(dp141
g80
S'1.37'
p142
sg82
S'ae2.1866'
p143
sg84
I1
sg85
I538
sg86
I1366
sg87
g1
(g88
g89
S'80Gbps'
tRp144
(dp145
g92
Nsg93
I00
sg94
Nsg95
I00
sg96
I00
sbsg97
I828
sg11
g1
(g88
g89
S'samara-r0_2nd_newt8'
tRp146
(dp147
g92
Nsg93
I00
sg94
Nsg95
I00
sg96
I00
sbsbag1
(g77
g3
NtRp148
(dp149
g80
S'1.37'
p150
sg82
S'ae2.1865'
p151
sg84
I1
sg85
I1370
sg86
I1370
sg87
g1
(g88
g89
S'80Gbps'
tRp152
(dp153
g92
Nsg93
I00
sg94
Nsg95
I00
sg96
I00
sbsg97
I0
sg11
g1
(g88
g89
S'samara-r0_newt8'
tRp154
(dp155
g92
Nsg93
I00
sg94
Nsg95
I00
sg96
I00
sbsbag1
(g77
g3
NtRp156
(dp157
g80
S'6.59'
p158
sg82
S'ae6.1855'
p159
sg84
I8
sg85
I6167
sg86
I6595
sg87
g1
(g88
g89
S'80Gbps'
tRp160
(dp161
g92
Nsg93
I00
sg94
Nsg95
I00
sg96
I00
sbsg97
I428
sg11
g1
(g88
g89
S'm9-r2_m9-r0_2'
tRp162
(dp163
g92
Nsg93
I00
sg94
Nsg95
I00
sg96
I00
sbsbatRp164
(dp165
S'router'
p166
NsS'lsplist'
p167
Nsbsg167
g1
(c__main__
LSPList
p168
g75
(lp169
g1
(c__main__
mLSP
p170
g3
NtRp171
(dp172
g80
S'1.12'
p173
sg82
g1
(g88
g89
S'm9-chelab_sv'
tRp174
(dp175
g92
Nsg93
I00
sg94
Nsg95
I00
sg96
I00
sbsS'state'
p176
g1
(g88
g89
S'Up'
tRp177
(dp178
g92
Nsg93
I00
sg94
Nsg95
I00
sg96
I00
sbsS'rbandwidth'
p179
S'0.6'
p180
sS'bandwidth'
p181
S'2000'
p182
sS'to'
p183
g1
(g88
g89
S'85.112.127.8'
tRp184
(dp185
g92
Nsg93
I00
sg94
Nsg95
I00
sg96
I00
sbsS'path_formatted'
p186
S'85.112.127.117'
p187
sS'to_name'
p188
g30
sg86
I1120
sS'path'
p189
(lp190
g1
(g88
g89
S'85.112.127.117'
tRp191
(dp192
g92
Nsg93
I00
sg94
Nsg95
I00
sg96
I00
sbasS'nexthop_interface'
p193
g103
sbag1
(g170
g3
NtRp194
(dp195
S'output_calculated_gpbs'
p196
S'0.45'
p197
sg80
NsS'output_calculated'
p198
I450
sg82
g1
(g88
g89
S'm9-ufa-eburg-chelab'
tRp199
(dp200
g92
Nsg93
I00
sg94
Nsg95
I00
sg96
I00
sbsg176
g1
(g88
g89
S'Up'
tRp201
(dp202
g92
Nsg93
I00
sg94
Nsg95
I00
sg96
I00
sbsg179
S'None'
p203
sg181
S'750'
p204
sg183
g1
(g88
g89
S'85.112.127.8'
tRp205
(dp206
g92
Nsg93
I00
sg94
Nsg95
I00
sg96
I00
sbsg186
S'85.112.127.233 - 85.112.127.243 - 85.112.127.156'
p207
sg188
g30
sg86
g203
sg189
(lp208
g1
(g88
g89
S'85.112.127.233'
tRp209
(dp210
g92
Nsg93
I00
sg94
Nsg95
I00
sg96
I00
sbag1
(g88
g89
S'85.112.127.243'
tRp211
(dp212
g92
Nsg93
I00
sg94
Nsg95
I00
sg96
I00
sbag1
(g88
g89
S'85.112.127.156'
tRp213
(dp214
g92
Nsg93
I00
sg94
Nsg95
I00
sg96
I00
sbasS'rbandwidth_calculated'
p215
F0.59999999999999998
sg193
g111
sbag1
(g170
g3
NtRp216
(dp217
g80
Nsg82
g1
(g88
g89
S'm9-samara-ufa-chelab_1'
tRp218
(dp219
g92
Nsg93
I00
sg94
Nsg95
I00
sg96
I00
sbsg176
S'Inactive'
p220
sg179
g203
sg181
S'1'
sg183
g1
(g88
g89
S'85.112.127.8'
tRp221
(dp222
g92
Nsg93
I00
sg94
Nsg95
I00
sg96
I00
sbsg186
S'85.112.127.244 - 85.112.127.123 - 85.112.127.194'
p223
sg188
g30
sg86
g203
sg189
(lp224
g1
(g88
g89
S'85.112.127.244'
tRp225
(dp226
g92
Nsg93
I00
sg94
Nsg95
I00
sg96
I00
sbag1
(g88
g89
S'85.112.127.123'
tRp227
(dp228
g92
Nsg93
I00
sg94
Nsg95
I00
sg96
I00
sbag1
(g88
g89
S'85.112.127.194'
tRp229
(dp230
g92
Nsg93
I00
sg94
Nsg95
I00
sg96
I00
sbasg193
g151
sbag1
(g170
g3
NtRp231
(dp232
g80
Nsg82
g1
(g88
g89
S'm9-samara-chelab_2'
tRp233
(dp234
g92
Nsg93
I00
sg94
Nsg95
I00
sg96
I00
sbsg176
g220
sg179
g203
sg181
S'500'
p235
sg183
g1
(g88
g89
S'85.112.127.8'
tRp236
(dp237
g92
Nsg93
I00
sg94
Nsg95
I00
sg96
I00
sbsg186
S'85.112.127.246 - 85.112.127.251'
p238
sg188
g30
sg86
g203
sg189
(lp239
g1
(g88
g89
S'85.112.127.246'
tRp240
(dp241
g92
Nsg93
I00
sg94
Nsg95
I00
sg96
I00
sbag1
(g88
g89
S'85.112.127.251'
tRp242
(dp243
g92
Nsg93
I00
sg94
Nsg95
I00
sg96
I00
sbasg193
g143
sbag1
(g170
g3
NtRp244
(dp245
g80
Nsg82
g1
(g88
g89
S'm9-saratov-ufa-chelab_2'
tRp246
(dp247
g92
Nsg93
I00
sg94
Nsg95
I00
sg96
I00
sbsg176
g220
sg179
g203
sg181
S'250'
p248
sg183
g1
(g88
g89
S'85.112.127.8'
tRp249
(dp250
g92
Nsg93
I00
sg94
Nsg95
I00
sg96
I00
sbsg186
S'85.112.127.230 - 85.112.127.249 - 85.112.127.194'
p251
sg188
g30
sg86
g203
sg189
(lp252
g1
(g88
g89
S'85.112.127.230'
tRp253
(dp254
g92
Nsg93
I00
sg94
Nsg95
I00
sg96
I00
sbag1
(g88
g89
S'85.112.127.249'
tRp255
(dp256
g92
Nsg93
I00
sg94
Nsg95
I00
sg96
I00
sbag1
(g88
g89
S'85.112.127.194'
tRp257
(dp258
g92
Nsg93
I00
sg94
Nsg95
I00
sg96
I00
sbasg193
g135
sbag1
(g170
g3
NtRp259
(dp260
g196
S'4.4'
p261
sg80
Nsg198
I4400
sg82
g1
(g88
g89
S'm9-ufa-eburg'
tRp262
(dp263
g92
Nsg93
I00
sg94
Nsg95
I00
sg96
I00
sbsg176
g1
(g88
g89
S'Up'
tRp264
(dp265
g92
Nsg93
I00
sg94
Nsg95
I00
sg96
I00
sbsg179
g203
sg181
S'2500'
p266
sg183
g1
(g88
g89
S'85.112.127.9'
tRp267
(dp268
g92
Nsg93
I00
sg94
Nsg95
I00
sg96
I00
sbsg186
S'85.112.127.233 - 85.112.127.243'
p269
sg188
g33
sg86
g203
sg189
(lp270
g1
(g88
g89
S'85.112.127.233'
tRp271
(dp272
g92
Nsg93
I00
sg94
Nsg95
I00
sg96
I00
sbag1
(g88
g89
S'85.112.127.243'
tRp273
(dp274
g92
Nsg93
I00
sg94
Nsg95
I00
sg96
I00
sbasg215
F1.76
sg193
g111
sbag1
(g170
g3
NtRp275
(dp276
g80
Nsg82
g1
(g88
g89
S'm9-m9-r2-eburg'
tRp277
(dp278
g92
Nsg93
I00
sg94
Nsg95
I00
sg96
I00
sbsg176
g220
sg179
g203
sg181
S'100'
p279
sg183
g1
(g88
g89
S'85.112.127.9'
tRp280
(dp281
g92
Nsg93
I00
sg94
Nsg95
I00
sg96
I00
sbsg186
S'85.112.127.171 - 85.112.127.173'
p282
sg188
g33
sg86
g203
sg189
(lp283
g1
(g88
g89
S'85.112.127.171'
tRp284
(dp285
g92
Nsg93
I00
sg94
Nsg95
I00
sg96
I00
sbag1
(g88
g89
S'85.112.127.173'
tRp286
(dp287
g92
Nsg93
I00
sg94
Nsg95
I00
sg96
I00
sbasg193
g159
sbag1
(g170
g3
NtRp288
(dp289
g80
S'7.78'
p290
sg82
g1
(g88
g89
S'm9-chelab-eburg'
tRp291
(dp292
g92
Nsg93
I00
sg94
Nsg95
I00
sg96
I00
sbsg176
g1
(g88
g89
S'Up'
tRp293
(dp294
g92
Nsg93
I00
sg94
Nsg95
I00
sg96
I00
sbsg179
S'1.9'
p295
sg181
S'4200'
p296
sg183
g1
(g88
g89
S'85.112.127.9'
tRp297
(dp298
g92
Nsg93
I00
sg94
Nsg95
I00
sg96
I00
sbsg186
S'85.112.127.117 - 85.112.127.157'
p299
sg188
g33
sg86
I7781
sg189
(lp300
g1
(g88
g89
S'85.112.127.117'
tRp301
(dp302
g92
Nsg93
I00
sg94
Nsg95
I00
sg96
I00
sbag1
(g88
g89
S'85.112.127.157'
tRp303
(dp304
g92
Nsg93
I00
sg94
Nsg95
I00
sg96
I00
sbasg193
g103
sbag1
(g170
g3
NtRp305
(dp306
g80
S'0.43'
p307
sg82
g1
(g88
g89
S'm9-r0-m9-r2-kazan-ufa-chelab-eburg'
tRp308
(dp309
g92
Nsg93
I00
sg94
Nsg95
I00
sg96
I00
sbsg176
g1
(g88
g89
S'Up'
tRp310
(dp311
g92
Nsg93
I00
sg94
Nsg95
I00
sg96
I00
sbsg179
S'1.7'
p312
sg181
S'250'
p313
sg183
g1
(g88
g89
S'85.112.127.9'
tRp314
(dp315
g92
Nsg93
I00
sg94
Nsg95
I00
sg96
I00
sbsg186
S'85.112.127.171 - 85.112.127.119 - 85.112.127.222 - 85.112.127.194 - 85.112.127.157'
p316
sg188
g33
sg86
I428
sg189
(lp317
g1
(g88
g89
S'85.112.127.171'
tRp318
(dp319
g92
Nsg93
I00
sg94
Nsg95
I00
sg96
I00
sbag1
(g88
g89
S'85.112.127.119'
tRp320
(dp321
g92
Nsg93
I00
sg94
Nsg95
I00
sg96
I00
sbag1
(g88
g89
S'85.112.127.222'
tRp322
(dp323
g92
Nsg93
I00
sg94
Nsg95
I00
sg96
I00
sbag1
(g88
g89
S'85.112.127.194'
tRp324
(dp325
g92
Nsg93
I00
sg94
Nsg95
I00
sg96
I00
sbag1
(g88
g89
S'85.112.127.157'
tRp326
(dp327
g92
Nsg93
I00
sg94
Nsg95
I00
sg96
I00
sbasg193
g159
sbag1
(g170
g3
NtRp328
(dp329
g80
S'1.31'
p330
sg82
g1
(g88
g89
S'm9-saratov-eburg_1'
tRp331
(dp332
g92
Nsg93
I00
sg94
Nsg95
I00
sg96
I00
sbsg176
g1
(g88
g89
S'Up'
tRp333
(dp334
g92
Nsg93
I00
sg94
Nsg95
I00
sg96
I00
sbsg179
S'1.9'
p335
sg181
S'700'
p336
sg183
g1
(g88
g89
S'85.112.127.9'
tRp337
(dp338
g92
Nsg93
I00
sg94
Nsg95
I00
sg96
I00
sbsg186
S'85.112.127.151 - 85.112.127.183'
p339
sg188
g33
sg86
I1313
sg189
(lp340
g1
(g88
g89
S'85.112.127.151'
tRp341
(dp342
g92
Nsg93
I00
sg94
Nsg95
I00
sg96
I00
sbag1
(g88
g89
S'85.112.127.183'
tRp343
(dp344
g92
Nsg93
I00
sg94
Nsg95
I00
sg96
I00
sbasg193
g119
sbag1
(g170
g3
NtRp345
(dp346
g80
S'0.16'
p347
sg82
g1
(g88
g89
S'm9-saratov-ufa-chelab-eburg_2'
tRp348
(dp349
g92
Nsg93
I00
sg94
Nsg95
I00
sg96
I00
sbsg176
g1
(g88
g89
S'Up'
tRp350
(dp351
g92
Nsg93
I00
sg94
Nsg95
I00
sg96
I00
sbsg179
S'1.6'
p352
sg181
S'100'
p353
sg183
g1
(g88
g89
S'85.112.127.9'
tRp354
(dp355
g92
Nsg93
I00
sg94
Nsg95
I00
sg96
I00
sbsg186
S'85.112.127.230 - 85.112.127.249 - 85.112.127.194 - 85.112.127.157'
p356
sg188
g33
sg86
I160
sg189
(lp357
g1
(g88
g89
S'85.112.127.230'
tRp358
(dp359
g92
Nsg93
I00
sg94
Nsg95
I00
sg96
I00
sbag1
(g88
g89
S'85.112.127.249'
tRp360
(dp361
g92
Nsg93
I00
sg94
Nsg95
I00
sg96
I00
sbag1
(g88
g89
S'85.112.127.194'
tRp362
(dp363
g92
Nsg93
I00
sg94
Nsg95
I00
sg96
I00
sbag1
(g88
g89
S'85.112.127.157'
tRp364
(dp365
g92
Nsg93
I00
sg94
Nsg95
I00
sg96
I00
sbasg193
g135
sbag1
(g170
g3
NtRp366
(dp367
g196
S'0.88'
p368
sg80
Nsg198
I880
sg82
g1
(g88
g89
S'm9-samara-ufa-eburg_1'
tRp369
(dp370
g92
Nsg93
I00
sg94
Nsg95
I00
sg96
I00
sbsg176
g1
(g88
g89
S'Up'
tRp371
(dp372
g92
Nsg93
I00
sg94
Nsg95
I00
sg96
I00
sbsg179
g203
sg181
S'500'
p373
sg183
g1
(g88
g89
S'85.112.127.9'
tRp374
(dp375
g92
Nsg93
I00
sg94
Nsg95
I00
sg96
I00
sbsg186
S'85.112.127.244 - 85.112.127.123 - 85.112.127.175'
p376
sg188
g33
sg86
g203
sg189
(lp377
g1
(g88
g89
S'85.112.127.244'
tRp378
(dp379
g92
Nsg93
I00
sg94
Nsg95
I00
sg96
I00
sbag1
(g88
g89
S'85.112.127.123'
tRp380
(dp381
g92
Nsg93
I00
sg94
Nsg95
I00
sg96
I00
sbag1
(g88
g89
S'85.112.127.175'
tRp382
(dp383
g92
Nsg93
I00
sg94
Nsg95
I00
sg96
I00
sbasg215
F1.76
sg193
g151
sbag1
(g170
g3
NtRp384
(dp385
g80
S'0.83'
p386
sg82
g1
(g88
g89
S'm9-samara-chelab-eburg_2'
tRp387
(dp388
g92
Nsg93
I00
sg94
Nsg95
I00
sg96
I00
sbsg176
g1
(g88
g89
S'Up'
tRp389
(dp390
g92
Nsg93
I00
sg94
Nsg95
I00
sg96
I00
sbsg179
S'1.7'
p391
sg181
S'500'
p392
sg183
g1
(g88
g89
S'85.112.127.9'
tRp393
(dp394
g92
Nsg93
I00
sg94
Nsg95
I00
sg96
I00
sbsg186
S'85.112.127.246 - 85.112.127.251 - 85.112.127.157'
p395
sg188
g33
sg86
I828
sg189
(lp396
g1
(g88
g89
S'85.112.127.246'
tRp397
(dp398
g92
Nsg93
I00
sg94
Nsg95
I00
sg96
I00
sbag1
(g88
g89
S'85.112.127.251'
tRp399
(dp400
g92
Nsg93
I00
sg94
Nsg95
I00
sg96
I00
sbag1
(g88
g89
S'85.112.127.157'
tRp401
(dp402
g92
Nsg93
I00
sg94
Nsg95
I00
sg96
I00
sbasg193
g143
sbag1
(g170
g3
NtRp403
(dp404
g196
S'0.45'
p405
sg80
Nsg198
I450
sg82
g1
(g88
g89
S'm9-ufa-eburg-novosib'
tRp406
(dp407
g92
Nsg93
I00
sg94
Nsg95
I00
sg96
I00
sbsg176
g1
(g88
g89
S'Up'
tRp408
(dp409
g92
Nsg93
I00
sg94
Nsg95
I00
sg96
I00
sbsg179
g203
sg181
S'1000'
p410
sg183
g1
(g88
g89
S'85.112.127.7'
tRp411
(dp412
g92
Nsg93
I00
sg94
Nsg95
I00
sg96
I00
sbsg186
S'85.112.127.233 - 85.112.127.243 - 85.112.127.221'
p413
sg188
g27
sg86
g203
sg189
(lp414
g1
(g88
g89
S'85.112.127.233'
tRp415
(dp416
g92
Nsg93
I00
sg94
Nsg95
I00
sg96
I00
sbag1
(g88
g89
S'85.112.127.243'
tRp417
(dp418
g92
Nsg93
I00
sg94
Nsg95
I00
sg96
I00
sbag1
(g88
g89
S'85.112.127.221'
tRp419
(dp420
g92
Nsg93
I00
sg94
Nsg95
I00
sg96
I00
sbasg215
F0.45000000000000001
sg193
g111
sbag1
(g170
g3
NtRp421
(dp422
g80
S'0.92'
p423
sg82
g1
(g88
g89
S'm9-chelab-novosib'
tRp424
(dp425
g92
Nsg93
I00
sg94
Nsg95
I00
sg96
I00
sbsg176
g1
(g88
g89
S'Up'
tRp426
(dp427
g92
Nsg93
I00
sg94
Nsg95
I00
sg96
I00
sbsg179
S'0.5'
p428
sg181
S'2000'
p429
sg183
g1
(g88
g89
S'85.112.127.7'
tRp430
(dp431
g92
Nsg93
I00
sg94
Nsg95
I00
sg96
I00
sbsg186
S'85.112.127.117 - 85.112.127.235'
p432
sg188
g27
sg86
I918
sg189
(lp433
g1
(g88
g89
S'85.112.127.117'
tRp434
(dp435
g92
Nsg93
I00
sg94
Nsg95
I00
sg96
I00
sbag1
(g88
g89
S'85.112.127.235'
tRp436
(dp437
g92
Nsg93
I00
sg94
Nsg95
I00
sg96
I00
sbasg193
g103
sbag1
(g170
g3
NtRp438
(dp439
g80
S'0.99'
p440
sg82
g1
(g88
g89
S'm9-chelab-eburg-novosib'
tRp441
(dp442
g92
Nsg93
I00
sg94
Nsg95
I00
sg96
I00
sbsg176
g1
(g88
g89
S'Up'
tRp443
(dp444
g92
Nsg93
I00
sg94
Nsg95
I00
sg96
I00
sbsg179
S'0.4'
p445
sg181
S'2200'
p446
sg183
g1
(g88
g89
S'85.112.127.7'
tRp447
(dp448
g92
Nsg93
I00
sg94
Nsg95
I00
sg96
I00
sbsg186
S'85.112.127.117 - 85.112.127.157 - 85.112.127.221'
p449
sg188
g27
sg86
I989
sg189
(lp450
g1
(g88
g89
S'85.112.127.117'
tRp451
(dp452
g92
Nsg93
I00
sg94
Nsg95
I00
sg96
I00
sbag1
(g88
g89
S'85.112.127.157'
tRp453
(dp454
g92
Nsg93
I00
sg94
Nsg95
I00
sg96
I00
sbag1
(g88
g89
S'85.112.127.221'
tRp455
(dp456
g92
Nsg93
I00
sg94
Nsg95
I00
sg96
I00
sbasg193
g103
sbag1
(g170
g3
NtRp457
(dp458
g196
S'0.14'
p459
sg80
Nsg198
I135
sg82
g1
(g88
g89
S'm9-ufa-eburg-tumen-novosib_1'
tRp460
(dp461
g92
Nsg93
I00
sg94
Nsg95
I00
sg96
I00
sbsg176
g1
(g88
g89
S'Up'
tRp462
(dp463
g92
Nsg93
I00
sg94
Nsg95
I00
sg96
I00
sbsg179
g203
sg181
S'300'
p464
sg183
g1
(g88
g89
S'85.112.127.7'
tRp465
(dp466
g92
Nsg93
I00
sg94
Nsg95
I00
sg96
I00
sbsg186
S'85.112.127.233 - 85.112.127.243 - 85.112.127.58  - 85.112.127.162'
p467
sg188
g27
sg86
g203
sg189
(lp468
g1
(g88
g89
S'85.112.127.233'
tRp469
(dp470
g92
Nsg93
I00
sg94
Nsg95
I00
sg96
I00
sbag1
(g88
g89
S'85.112.127.243'
tRp471
(dp472
g92
Nsg93
I00
sg94
Nsg95
I00
sg96
I00
sbag1
(g88
g89
S'85.112.127.58'
tRp473
(dp474
g92
Nsg93
I00
sg94
Nsg95
I00
sg96
I00
sbag1
(g88
g89
S'85.112.127.162'
tRp475
(dp476
g92
Nsg93
I00
sg94
Nsg95
I00
sg96
I00
sbasg215
F0.45000000000000001
sg193
g111
sbag1
(g170
g3
NtRp477
(dp478
g196
S'0.45'
p479
sg80
Nsg198
I450
sg82
g1
(g88
g89
S'm9-r0-m9-r2-nnov-eburg-novosib_sv'
tRp480
(dp481
g92
Nsg93
I00
sg94
Nsg95
I00
sg96
I00
sbsg176
g1
(g88
g89
S'Up'
tRp482
(dp483
g92
Nsg93
I00
sg94
Nsg95
I00
sg96
I00
sbsg179
g203
sg181
S'1000'
p484
sg183
g1
(g88
g89
S'85.112.127.7'
tRp485
(dp486
g92
Nsg93
I00
sg94
Nsg95
I00
sg96
I00
sbsg186
S'85.112.127.171 - 85.112.127.177 - 85.112.127.98  - 85.112.127.221'
p487
sg188
g27
sg86
g203
sg189
(lp488
g1
(g88
g89
S'85.112.127.171'
tRp489
(dp490
g92
Nsg93
I00
sg94
Nsg95
I00
sg96
I00
sbag1
(g88
g89
S'85.112.127.177'
tRp491
(dp492
g92
Nsg93
I00
sg94
Nsg95
I00
sg96
I00
sbag1
(g88
g89
S'85.112.127.98'
tRp493
(dp494
g92
Nsg93
I00
sg94
Nsg95
I00
sg96
I00
sbag1
(g88
g89
S'85.112.127.221'
tRp495
(dp496
g92
Nsg93
I00
sg94
Nsg95
I00
sg96
I00
sbasg215
F0.45000000000000001
sg193
g159
sbag1
(g170
g3
NtRp497
(dp498
g196
S'0.45'
p499
sg80
Nsg198
I450
sg82
g1
(g88
g89
S'm9-ufa-eburg-tumen-novosib_2'
tRp500
(dp501
g92
Nsg93
I00
sg94
Nsg95
I00
sg96
I00
sbsg176
g1
(g88
g89
S'Up'
tRp502
(dp503
g92
Nsg93
I00
sg94
Nsg95
I00
sg96
I00
sbsg179
g203
sg181
S'1000'
p504
sg183
g1
(g88
g89
S'85.112.127.7'
tRp505
(dp506
g92
Nsg93
I00
sg94
Nsg95
I00
sg96
I00
sbsg186
S'85.112.127.233 - 85.112.127.243 - 85.112.127.58  - 85.112.127.61 '
p507
sg188
g27
sg86
g203
sg189
(lp508
g1
(g88
g89
S'85.112.127.233'
tRp509
(dp510
g92
Nsg93
I00
sg94
Nsg95
I00
sg96
I00
sbag1
(g88
g89
S'85.112.127.243'
tRp511
(dp512
g92
Nsg93
I00
sg94
Nsg95
I00
sg96
I00
sbag1
(g88
g89
S'85.112.127.58'
tRp513
(dp514
g92
Nsg93
I00
sg94
Nsg95
I00
sg96
I00
sbag1
(g88
g89
S'85.112.127.61'
tRp515
(dp516
g92
Nsg93
I00
sg94
Nsg95
I00
sg96
I00
sbasg215
F0.45000000000000001
sg193
g111
sbag1
(g170
g3
NtRp517
(dp518
g196
S'0.45'
p519
sg80
Nsg198
I450
sg82
g1
(g88
g89
S'm9-ufa-eburg-novosib_sv'
tRp520
(dp521
g92
Nsg93
I00
sg94
Nsg95
I00
sg96
I00
sbsg176
g1
(g88
g89
S'Up'
tRp522
(dp523
g92
Nsg93
I00
sg94
Nsg95
I00
sg96
I00
sbsg179
g203
sg181
S'1000'
p524
sg183
g1
(g88
g89
S'85.112.127.7'
tRp525
(dp526
g92
Nsg93
I00
sg94
Nsg95
I00
sg96
I00
sbsg186
S'85.112.127.233 - 85.112.127.243 - 85.112.127.126'
p527
sg188
g27
sg86
g203
sg189
(lp528
g1
(g88
g89
S'85.112.127.233'
tRp529
(dp530
g92
Nsg93
I00
sg94
Nsg95
I00
sg96
I00
sbag1
(g88
g89
S'85.112.127.243'
tRp531
(dp532
g92
Nsg93
I00
sg94
Nsg95
I00
sg96
I00
sbag1
(g88
g89
S'85.112.127.126'
tRp533
(dp534
g92
Nsg93
I00
sg94
Nsg95
I00
sg96
I00
sbasg215
F0.45000000000000001
sg193
g111
sbag1
(g170
g3
NtRp535
(dp536
g80
S'1.09'
p537
sg82
g1
(g88
g89
S'm9-cheboks1'
tRp538
(dp539
g92
Nsg93
I00
sg94
Nsg95
I00
sg96
I00
sbsg176
g1
(g88
g89
S'Up'
tRp540
(dp541
g92
Nsg93
I00
sg94
Nsg95
I00
sg96
I00
sbsg179
S'1.1'
p542
sg181
S'1000'
p543
sg183
g1
(g88
g89
S'85.112.127.13'
tRp544
(dp545
g92
Nsg93
I00
sg94
Nsg95
I00
sg96
I00
sbsg186
S'85.112.127.213'
p546
sg188
g45
sg86
I1092
sg189
(lp547
g1
(g88
g89
S'85.112.127.213'
tRp548
(dp549
g92
Nsg93
I00
sg94
Nsg95
I00
sg96
I00
sbasg193
g83
sbag1
(g170
g3
NtRp550
(dp551
g80
S'0.53'
p552
sg82
g1
(g88
g89
S'm9-r0-m9-r2-kazan-cheboks'
tRp553
(dp554
g92
Nsg93
I00
sg94
Nsg95
I00
sg96
I00
sbsg176
g1
(g88
g89
S'Up'
tRp555
(dp556
g92
Nsg93
I00
sg94
Nsg95
I00
sg96
I00
sbsg179
S'1.1'
p557
sg181
S'500'
p558
sg183
g1
(g88
g89
S'85.112.127.13'
tRp559
(dp560
g92
Nsg93
I00
sg94
Nsg95
I00
sg96
I00
sbsg186
S'85.112.127.168 - 85.112.127.119 - 85.112.127.218'
p561
sg188
g45
sg86
I525
sg189
(lp562
g1
(g88
g89
S'85.112.127.168'
tRp563
(dp564
g92
Nsg93
I00
sg94
Nsg95
I00
sg96
I00
sbag1
(g88
g89
S'85.112.127.119'
tRp565
(dp566
g92
Nsg93
I00
sg94
Nsg95
I00
sg96
I00
sbag1
(g88
g89
S'85.112.127.218'
tRp567
(dp568
g92
Nsg93
I00
sg94
Nsg95
I00
sg96
I00
sbasg193
g127
sbag1
(g170
g3
NtRp569
(dp570
g80
S'1.37'
p571
sg82
g1
(g88
g89
S'm9-r0-m9-r2-nnov_sv'
tRp572
(dp573
g92
Nsg93
I00
sg94
Nsg95
I00
sg96
I00
sbsg176
g1
(g88
g89
S'Up'
tRp574
(dp575
g92
Nsg93
I00
sg94
Nsg95
I00
sg96
I00
sbsg179
S'13.7'
p576
sg181
S'100'
p577
sg183
g1
(g88
g89
S'85.112.127.10'
tRp578
(dp579
g92
Nsg93
I00
sg94
Nsg95
I00
sg96
I00
sbsg186
S'85.112.127.168 - 85.112.127.177'
p580
sg188
g36
sg86
I1373
sg189
(lp581
g1
(g88
g89
S'85.112.127.168'
tRp582
(dp583
g92
Nsg93
I00
sg94
Nsg95
I00
sg96
I00
sbag1
(g88
g89
S'85.112.127.177'
tRp584
(dp585
g92
Nsg93
I00
sg94
Nsg95
I00
sg96
I00
sbasg193
g127
sbag1
(g170
g3
NtRp586
(dp587
g196
S'1.37'
p588
sg80
Nsg198
I1370
sg82
g1
(g88
g89
S'm9-r0-m9-r2-nnov-sw0-r0'
tRp589
(dp590
g92
Nsg93
I00
sg94
Nsg95
I00
sg96
I00
sbsg176
g1
(g88
g89
S'Up'
tRp591
(dp592
g92
Nsg93
I00
sg94
Nsg95
I00
sg96
I00
sbsg179
g203
sg181
S'100'
p593
sg183
g1
(g88
g89
S'85.112.127.10'
tRp594
(dp595
g92
Nsg93
I00
sg94
Nsg95
I00
sg96
I00
sbsg186
S'85.112.127.168 - 85.112.127.241'
p596
sg188
g36
sg86
g203
sg189
(lp597
g1
(g88
g89
S'85.112.127.168'
tRp598
(dp599
g92
Nsg93
I00
sg94
Nsg95
I00
sg96
I00
sbag1
(g88
g89
S'85.112.127.241'
tRp600
(dp601
g92
Nsg93
I00
sg94
Nsg95
I00
sg96
I00
sbasg215
F13.699999999999999
sg193
g127
sbag1
(g170
g3
NtRp602
(dp603
g196
S'2.11'
p604
sg80
Nsg198
I2112
sg82
g1
(g88
g89
S'm9-m9-r2-chelab-eburg'
tRp605
(dp606
g92
Nsg93
I00
sg94
Nsg95
I00
sg96
I00
sbsg176
g1
(g88
g89
S'Up'
tRp607
(dp608
g92
Nsg93
I00
sg94
Nsg95
I00
sg96
I00
sbsg179
g203
sg181
S'1200'
p609
sg183
g1
(g88
g89
S'85.112.127.9'
tRp610
(dp611
g92
Nsg93
I00
sg94
Nsg95
I00
sg96
I00
sbsg186
S'85.112.127.171 - 85.112.127.155 - 85.112.127.157'
p612
sg188
g33
sg86
g203
sg189
(lp613
g1
(g88
g89
S'85.112.127.171'
tRp614
(dp615
g92
Nsg93
I00
sg94
Nsg95
I00
sg96
I00
sbag1
(g88
g89
S'85.112.127.155'
tRp616
(dp617
g92
Nsg93
I00
sg94
Nsg95
I00
sg96
I00
sbag1
(g88
g89
S'85.112.127.157'
tRp618
(dp619
g92
Nsg93
I00
sg94
Nsg95
I00
sg96
I00
sbasg215
F1.76
sg193
g159
sbag1
(g170
g3
NtRp620
(dp621
g196
S'0.9'
p622
sg80
Nsg198
I900
sg82
g1
(g88
g89
S'm9-ufa-tumen-novosib_sv1'
tRp623
(dp624
g92
Nsg93
I00
sg94
Nsg95
I00
sg96
I00
sbsg176
g1
(g88
g89
S'Up'
tRp625
(dp626
g92
Nsg93
I00
sg94
Nsg95
I00
sg96
I00
sbsg179
g203
sg181
S'2000'
p627
sg183
g1
(g88
g89
S'85.112.127.7'
tRp628
(dp629
g92
Nsg93
I00
sg94
Nsg95
I00
sg96
I00
sbsg186
S'85.112.127.233 - 85.112.127.203 - 85.112.127.162'
p630
sg188
g27
sg86
g203
sg189
(lp631
g1
(g88
g89
S'85.112.127.233'
tRp632
(dp633
g92
Nsg93
I00
sg94
Nsg95
I00
sg96
I00
sbag1
(g88
g89
S'85.112.127.203'
tRp634
(dp635
g92
Nsg93
I00
sg94
Nsg95
I00
sg96
I00
sbag1
(g88
g89
S'85.112.127.162'
tRp636
(dp637
g92
Nsg93
I00
sg94
Nsg95
I00
sg96
I00
sbasg215
F0.45000000000000001
sg193
g111
sbag1
(g170
g3
NtRp638
(dp639
g196
S'0.9'
p640
sg80
Nsg198
I900
sg82
g1
(g88
g89
S'm9-ufa-tumen-novosib_sv2'
tRp641
(dp642
g92
Nsg93
I00
sg94
Nsg95
I00
sg96
I00
sbsg176
g1
(g88
g89
S'Up'
tRp643
(dp644
g92
Nsg93
I00
sg94
Nsg95
I00
sg96
I00
sbsg179
g203
sg181
S'2000'
p645
sg183
g1
(g88
g89
S'85.112.127.7'
tRp646
(dp647
g92
Nsg93
I00
sg94
Nsg95
I00
sg96
I00
sbsg186
S'85.112.127.233 - 85.112.127.203 - 85.112.127.61 '
p648
sg188
g27
sg86
g203
sg189
(lp649
g1
(g88
g89
S'85.112.127.233'
tRp650
(dp651
g92
Nsg93
I00
sg94
Nsg95
I00
sg96
I00
sbag1
(g88
g89
S'85.112.127.203'
tRp652
(dp653
g92
Nsg93
I00
sg94
Nsg95
I00
sg96
I00
sbag1
(g88
g89
S'85.112.127.61'
tRp654
(dp655
g92
Nsg93
I00
sg94
Nsg95
I00
sg96
I00
sbasg215
F0.45000000000000001
sg193
g111
sbatRp656
(dp657
g166
NsS'zabbixapi'
p658
Nsbsg82
S'm9-r0'
p659
sS'last_parse'
p660
S'Wed Feb  3 00:38:19 2016'
p661
sb.