ccopy_reg
_reconstructor
p1
(c__main__
mRouter
p2
c__builtin__
object
p3
NtRp4
(dp5
S'neighbors'
p6
(lp7
(dp8
S'ip'
p9
S'85.112.127.2'
p10
sS'description'
p11
S'm9-r2'
p12
sa(dp13
g9
S'85.112.127.3'
p14
sg11
S'fft-r0_mx80'
p15
sa(dp16
g9
S'85.112.127.4'
p17
sg11
S'm9-r1'
p18
sa(dp19
g9
S'85.112.127.5'
p20
sg11
S'mr-r0'
p21
sa(dp22
g9
S'85.112.127.7'
p23
sg11
S'novosib-r0'
p24
sa(dp25
g9
S'85.112.127.8'
p26
sg11
S'chelab-r0'
p27
sa(dp28
g9
S'85.112.127.9'
p29
sg11
S'eburg-r0'
p30
sa(dp31
g9
S'85.112.127.10'
p32
sg11
S'nnov-r0'
p33
sa(dp34
g9
S'85.112.127.11'
p35
sg11
S'tumen-r0'
p36
sa(dp37
g9
S'85.112.127.12'
p38
sg11
S'rostov-r0'
p39
sa(dp40
g9
S'85.112.127.13'
p41
sg11
S'cheboks-r0'
p42
sa(dp43
g9
S'85.112.127.14'
p44
sg11
S'ufa-r0'
p45
sa(dp46
g9
S'85.112.127.15'
p47
sg11
S'piter-r0'
p48
sa(dp49
g9
S'85.112.127.16'
p50
sg11
S'samara-r0'
p51
sa(dp52
g9
S'85.112.127.17'
p53
sg11
S'kazan-r0'
p54
sa(dp55
g9
S'85.112.127.18'
p56
sg11
S'kiev-r0'
p57
sa(dp58
g9
S'85.112.127.19'
p59
sg11
S'zelen-r0'
p60
sa(dp61
g9
S'85.112.127.20'
p62
sg11
S'tagank-r0'
p63
sa(dp64
g9
S'85.112.127.21'
p65
sg11
S'saratov-r0'
p66
sa(dp67
g9
S'85.112.127.22'
p68
sg11
S'borov-r0'
p69
sa(dp70
g9
S'85.112.127.6'
p71
sg11
S'tumen-r0_mx240'
p72
sasS'intlist'
p73
g1
(c__main__
InterfaceList
p74
c__builtin__
list
p75
(lp76
g1
(c__main__
mInterface
p77
g3
NtRp78
(dp79
S'output_gbps'
p80
S'5.57'
p81
sS'name'
p82
S'xe-1/2/2.910'
p83
sS'utilization'
p84
I55
sS'ldpout'
p85
I3844
sS'output'
p86
I5572
sS'speed'
p87
g1
(clxml.etree
_ElementStringResult
p88
c__builtin__
str
p89
S'10Gbps'
tRp90
(dp91
S'_parent'
p92
NsS'is_attribute'
p93
I00
sS'attrname'
p94
NsS'is_text'
p95
I00
sS'is_tail'
p96
I00
sbsS'rsvpout'
p97
I1728
sg11
g1
(g88
g89
S'cheboks-r0_1st'
tRp98
(dp99
g92
Nsg93
I00
sg94
Nsg95
I00
sg96
I00
sbsbag1
(g77
g3
NtRp100
(dp101
g80
S'55.49'
p102
sg82
S'ae4.849'
p103
sg84
I46
sg85
I10512
sg86
I55493
sg87
g1
(g88
g89
S'120Gbps'
tRp104
(dp105
g92
Nsg93
I00
sg94
Nsg95
I00
sg96
I00
sbsg97
I44981
sg11
g1
(g88
g89
S'm9-chelab_sv'
tRp106
(dp107
g92
Nsg93
I00
sg94
Nsg95
I00
sg96
I00
sbsbag1
(g77
g3
NtRp108
(dp109
g80
S'37.36'
p110
sg82
S'ae3.933'
p111
sg84
I62
sg85
I14066
sg86
I37358
sg87
g1
(g88
g89
S'60Gbps'
tRp112
(dp113
g92
Nsg93
I00
sg94
Nsg95
I00
sg96
I00
sbsg97
I23292
sg11
g1
(g88
g89
S'eburg-r0_t8'
tRp114
(dp115
g92
Nsg93
I00
sg94
Nsg95
I00
sg96
I00
sbsbag1
(g77
g3
NtRp116
(dp117
g80
S'4.65'
p118
sg82
S'xe-1/1/1.1843'
p119
sg84
I46
sg85
I474
sg86
I4653
sg87
g1
(g88
g89
S'10Gbps'
tRp120
(dp121
g92
Nsg93
I00
sg94
Nsg95
I00
sg96
I00
sbsg97
I4179
sg11
g1
(g88
g89
S'saratov-r0_newt8'
tRp122
(dp123
g92
Nsg93
I00
sg94
Nsg95
I00
sg96
I00
sbsbag1
(g77
g3
NtRp124
(dp125
g80
S'5.11'
p126
sg82
S'ae2.1854'
p127
sg84
I6
sg85
I2004
sg86
I5105
sg87
g1
(g88
g89
S'80Gbps'
tRp128
(dp129
g92
Nsg93
I00
sg94
Nsg95
I00
sg96
I00
sbsg97
I3101
sg11
g1
(g88
g89
S'm9-r2_1st'
tRp130
(dp131
g92
Nsg93
I00
sg94
Nsg95
I00
sg96
I00
sbsbag1
(g77
g3
NtRp132
(dp133
g80
S'0.84'
p134
sg82
S'ae2.1867'
p135
sg84
I1
sg85
I155
sg86
I840
sg87
g1
(g88
g89
S'80Gbps'
tRp136
(dp137
g92
Nsg93
I00
sg94
Nsg95
I00
sg96
I00
sbsg97
I685
sg11
g1
(g88
g89
S'saratov-r0_2nd'
tRp138
(dp139
g92
Nsg93
I00
sg94
Nsg95
I00
sg96
I00
sbsbag1
(g77
g3
NtRp140
(dp141
g80
S'5.88'
p142
sg82
S'ae2.1866'
p143
sg84
I7
sg85
I2864
sg86
I5877
sg87
g1
(g88
g89
S'80Gbps'
tRp144
(dp145
g92
Nsg93
I00
sg94
Nsg95
I00
sg96
I00
sbsg97
I3013
sg11
g1
(g88
g89
S'samara-r0_2nd_newt8'
tRp146
(dp147
g92
Nsg93
I00
sg94
Nsg95
I00
sg96
I00
sbsbag1
(g77
g3
NtRp148
(dp149
g80
S'5.84'
p150
sg82
S'ae2.1865'
p151
sg84
I7
sg85
I5843
sg86
I5843
sg87
g1
(g88
g89
S'80Gbps'
tRp152
(dp153
g92
Nsg93
I00
sg94
Nsg95
I00
sg96
I00
sbsg97
I0
sg11
g1
(g88
g89
S'samara-r0_newt8'
tRp154
(dp155
g92
Nsg93
I00
sg94
Nsg95
I00
sg96
I00
sbsbag1
(g77
g3
NtRp156
(dp157
g80
S'13.74'
p158
sg82
S'ae6.1855'
p159
sg84
I17
sg85
I12324
sg86
I13738
sg87
g1
(g88
g89
S'80Gbps'
tRp160
(dp161
g92
Nsg93
I00
sg94
Nsg95
I00
sg96
I00
sbsg97
I1414
sg11
g1
(g88
g89
S'm9-r2_m9-r0_2'
tRp162
(dp163
g92
Nsg93
I00
sg94
Nsg95
I00
sg96
I00
sbsbatRp164
(dp165
S'router'
p166
NsS'lsplist'
p167
Nsbsg167
g1
(c__main__
LSPList
p168
g75
(lp169
g1
(c__main__
mLSP
p170
g3
NtRp171
(dp172
g80
S'4.37'
p173
sg82
g1
(g88
g89
S'm9-chelab_sv'
tRp174
(dp175
g92
Nsg93
I00
sg94
Nsg95
I00
sg96
I00
sbsS'state'
p176
g1
(g88
g89
S'Up'
tRp177
(dp178
g92
Nsg93
I00
sg94
Nsg95
I00
sg96
I00
sbsS'rbandwidth'
p179
S'2.2'
p180
sS'bandwidth'
p181
S'2000'
p182
sS'to'
p183
g1
(g88
g89
S'85.112.127.8'
tRp184
(dp185
g92
Nsg93
I00
sg94
Nsg95
I00
sg96
I00
sbsS'path_formatted'
p186
S'85.112.127.117'
p187
sS'to_name'
p188
g27
sg86
I4374
sS'path'
p189
(lp190
g1
(g88
g89
S'85.112.127.117'
tRp191
(dp192
g92
Nsg93
I00
sg94
Nsg95
I00
sg96
I00
sbasS'nexthop_interface'
p193
g103
sbag1
(g170
g3
NtRp194
(dp195
g80
S'1.38'
p196
sg82
g1
(g88
g89
S'm9-eburg-chelab'
tRp197
(dp198
g92
Nsg93
I00
sg94
Nsg95
I00
sg96
I00
sbsg176
g1
(g88
g89
S'Up'
tRp199
(dp200
g92
Nsg93
I00
sg94
Nsg95
I00
sg96
I00
sbsg179
S'1.8'
p201
sg181
S'750'
p202
sg183
g1
(g88
g89
S'85.112.127.8'
tRp203
(dp204
g92
Nsg93
I00
sg94
Nsg95
I00
sg96
I00
sbsg186
S'85.112.127.233 - 85.112.127.156'
p205
sg188
g27
sg86
I1375
sg189
(lp206
g1
(g88
g89
S'85.112.127.233'
tRp207
(dp208
g92
Nsg93
I00
sg94
Nsg95
I00
sg96
I00
sbag1
(g88
g89
S'85.112.127.156'
tRp209
(dp210
g92
Nsg93
I00
sg94
Nsg95
I00
sg96
I00
sbasg193
g111
sbag1
(g170
g3
NtRp211
(dp212
g80
Nsg82
g1
(g88
g89
S'm9-samara-ufa-chelab_1'
tRp213
(dp214
g92
Nsg93
I00
sg94
Nsg95
I00
sg96
I00
sbsg176
S'Inactive'
p215
sg179
S'None'
p216
sg181
S'1'
sg183
g1
(g88
g89
S'85.112.127.8'
tRp217
(dp218
g92
Nsg93
I00
sg94
Nsg95
I00
sg96
I00
sbsg186
S'85.112.127.244 - 85.112.127.123 - 85.112.127.194'
p219
sg188
g27
sg86
g216
sg189
(lp220
g1
(g88
g89
S'85.112.127.244'
tRp221
(dp222
g92
Nsg93
I00
sg94
Nsg95
I00
sg96
I00
sbag1
(g88
g89
S'85.112.127.123'
tRp223
(dp224
g92
Nsg93
I00
sg94
Nsg95
I00
sg96
I00
sbag1
(g88
g89
S'85.112.127.194'
tRp225
(dp226
g92
Nsg93
I00
sg94
Nsg95
I00
sg96
I00
sbasg193
g151
sbag1
(g170
g3
NtRp227
(dp228
g80
Nsg82
g1
(g88
g89
S'm9-samara-chelab_2'
tRp229
(dp230
g92
Nsg93
I00
sg94
Nsg95
I00
sg96
I00
sbsg176
g215
sg179
g216
sg181
S'500'
p231
sg183
g1
(g88
g89
S'85.112.127.8'
tRp232
(dp233
g92
Nsg93
I00
sg94
Nsg95
I00
sg96
I00
sbsg186
S'85.112.127.246 - 85.112.127.251'
p234
sg188
g27
sg86
g216
sg189
(lp235
g1
(g88
g89
S'85.112.127.246'
tRp236
(dp237
g92
Nsg93
I00
sg94
Nsg95
I00
sg96
I00
sbag1
(g88
g89
S'85.112.127.251'
tRp238
(dp239
g92
Nsg93
I00
sg94
Nsg95
I00
sg96
I00
sbasg193
g143
sbag1
(g170
g3
NtRp240
(dp241
g80
Nsg82
g1
(g88
g89
S'm9-saratov-ufa-chelab_2'
tRp242
(dp243
g92
Nsg93
I00
sg94
Nsg95
I00
sg96
I00
sbsg176
g215
sg179
g216
sg181
S'250'
p244
sg183
g1
(g88
g89
S'85.112.127.8'
tRp245
(dp246
g92
Nsg93
I00
sg94
Nsg95
I00
sg96
I00
sbsg186
S'85.112.127.230 - 85.112.127.249 - 85.112.127.194'
p247
sg188
g27
sg86
g216
sg189
(lp248
g1
(g88
g89
S'85.112.127.230'
tRp249
(dp250
g92
Nsg93
I00
sg94
Nsg95
I00
sg96
I00
sbag1
(g88
g89
S'85.112.127.249'
tRp251
(dp252
g92
Nsg93
I00
sg94
Nsg95
I00
sg96
I00
sbag1
(g88
g89
S'85.112.127.194'
tRp253
(dp254
g92
Nsg93
I00
sg94
Nsg95
I00
sg96
I00
sbasg193
g135
sbag1
(g170
g3
NtRp255
(dp256
g80
S'14.75'
p257
sg82
g1
(g88
g89
S'm9-eburg'
tRp258
(dp259
g92
Nsg93
I00
sg94
Nsg95
I00
sg96
I00
sbsg176
g1
(g88
g89
S'Up'
tRp260
(dp261
g92
Nsg93
I00
sg94
Nsg95
I00
sg96
I00
sbsg179
S'5.9'
p262
sg181
S'2500'
p263
sg183
g1
(g88
g89
S'85.112.127.9'
tRp264
(dp265
g92
Nsg93
I00
sg94
Nsg95
I00
sg96
I00
sbsg186
S'85.112.127.233'
p266
sg188
g30
sg86
I14754
sg189
(lp267
g1
(g88
g89
S'85.112.127.233'
tRp268
(dp269
g92
Nsg93
I00
sg94
Nsg95
I00
sg96
I00
sbasg193
g111
sbag1
(g170
g3
NtRp270
(dp271
g80
Nsg82
g1
(g88
g89
S'm9-m9-r2-eburg'
tRp272
(dp273
g92
Nsg93
I00
sg94
Nsg95
I00
sg96
I00
sbsg176
g215
sg179
g216
sg181
S'100'
p274
sg183
g1
(g88
g89
S'85.112.127.9'
tRp275
(dp276
g92
Nsg93
I00
sg94
Nsg95
I00
sg96
I00
sbsg186
S'85.112.127.171 - 85.112.127.173'
p277
sg188
g30
sg86
g216
sg189
(lp278
g1
(g88
g89
S'85.112.127.171'
tRp279
(dp280
g92
Nsg93
I00
sg94
Nsg95
I00
sg96
I00
sbag1
(g88
g89
S'85.112.127.173'
tRp281
(dp282
g92
Nsg93
I00
sg94
Nsg95
I00
sg96
I00
sbasg193
g159
sbag1
(g170
g3
NtRp283
(dp284
g80
S'25.27'
p285
sg82
g1
(g88
g89
S'm9-chelab-eburg'
tRp286
(dp287
g92
Nsg93
I00
sg94
Nsg95
I00
sg96
I00
sbsg176
g1
(g88
g89
S'Up'
tRp288
(dp289
g92
Nsg93
I00
sg94
Nsg95
I00
sg96
I00
sbsg179
S'6.0'
p290
sg181
S'4200'
p291
sg183
g1
(g88
g89
S'85.112.127.9'
tRp292
(dp293
g92
Nsg93
I00
sg94
Nsg95
I00
sg96
I00
sbsg186
S'85.112.127.117 - 85.112.127.157'
p294
sg188
g30
sg86
I25275
sg189
(lp295
g1
(g88
g89
S'85.112.127.117'
tRp296
(dp297
g92
Nsg93
I00
sg94
Nsg95
I00
sg96
I00
sbag1
(g88
g89
S'85.112.127.157'
tRp298
(dp299
g92
Nsg93
I00
sg94
Nsg95
I00
sg96
I00
sbasg193
g103
sbag1
(g170
g3
NtRp300
(dp301
g80
S'1.41'
p302
sg82
g1
(g88
g89
S'm9-r0-m9-r2-kazan-ufa-chelab-eburg'
tRp303
(dp304
g92
Nsg93
I00
sg94
Nsg95
I00
sg96
I00
sbsg176
g1
(g88
g89
S'Up'
tRp305
(dp306
g92
Nsg93
I00
sg94
Nsg95
I00
sg96
I00
sbsg179
S'5.7'
p307
sg181
S'250'
p308
sg183
g1
(g88
g89
S'85.112.127.9'
tRp309
(dp310
g92
Nsg93
I00
sg94
Nsg95
I00
sg96
I00
sbsg186
S'85.112.127.171 - 85.112.127.119 - 85.112.127.222 - 85.112.127.194 - 85.112.127.157'
p311
sg188
g30
sg86
I1414
sg189
(lp312
g1
(g88
g89
S'85.112.127.171'
tRp313
(dp314
g92
Nsg93
I00
sg94
Nsg95
I00
sg96
I00
sbag1
(g88
g89
S'85.112.127.119'
tRp315
(dp316
g92
Nsg93
I00
sg94
Nsg95
I00
sg96
I00
sbag1
(g88
g89
S'85.112.127.222'
tRp317
(dp318
g92
Nsg93
I00
sg94
Nsg95
I00
sg96
I00
sbag1
(g88
g89
S'85.112.127.194'
tRp319
(dp320
g92
Nsg93
I00
sg94
Nsg95
I00
sg96
I00
sbag1
(g88
g89
S'85.112.127.157'
tRp321
(dp322
g92
Nsg93
I00
sg94
Nsg95
I00
sg96
I00
sbasg193
g159
sbag1
(g170
g3
NtRp323
(dp324
g80
S'4.18'
p325
sg82
g1
(g88
g89
S'm9-saratov-eburg_1'
tRp326
(dp327
g92
Nsg93
I00
sg94
Nsg95
I00
sg96
I00
sbsg176
g1
(g88
g89
S'Up'
tRp328
(dp329
g92
Nsg93
I00
sg94
Nsg95
I00
sg96
I00
sbsg179
S'6.0'
p330
sg181
S'700'
p331
sg183
g1
(g88
g89
S'85.112.127.9'
tRp332
(dp333
g92
Nsg93
I00
sg94
Nsg95
I00
sg96
I00
sbsg186
S'85.112.127.151 - 85.112.127.183'
p334
sg188
g30
sg86
I4179
sg189
(lp335
g1
(g88
g89
S'85.112.127.151'
tRp336
(dp337
g92
Nsg93
I00
sg94
Nsg95
I00
sg96
I00
sbag1
(g88
g89
S'85.112.127.183'
tRp338
(dp339
g92
Nsg93
I00
sg94
Nsg95
I00
sg96
I00
sbasg193
g119
sbag1
(g170
g3
NtRp340
(dp341
g80
S'0.69'
p342
sg82
g1
(g88
g89
S'm9-saratov-ufa-chelab-eburg_2'
tRp343
(dp344
g92
Nsg93
I00
sg94
Nsg95
I00
sg96
I00
sbsg176
g1
(g88
g89
S'Up'
tRp345
(dp346
g92
Nsg93
I00
sg94
Nsg95
I00
sg96
I00
sbsg179
S'6.8'
p347
sg181
S'100'
p348
sg183
g1
(g88
g89
S'85.112.127.9'
tRp349
(dp350
g92
Nsg93
I00
sg94
Nsg95
I00
sg96
I00
sbsg186
S'85.112.127.230 - 85.112.127.249 - 85.112.127.194 - 85.112.127.157'
p351
sg188
g30
sg86
I685
sg189
(lp352
g1
(g88
g89
S'85.112.127.230'
tRp353
(dp354
g92
Nsg93
I00
sg94
Nsg95
I00
sg96
I00
sbag1
(g88
g89
S'85.112.127.249'
tRp355
(dp356
g92
Nsg93
I00
sg94
Nsg95
I00
sg96
I00
sbag1
(g88
g89
S'85.112.127.194'
tRp357
(dp358
g92
Nsg93
I00
sg94
Nsg95
I00
sg96
I00
sbag1
(g88
g89
S'85.112.127.157'
tRp359
(dp360
g92
Nsg93
I00
sg94
Nsg95
I00
sg96
I00
sbasg193
g135
sbag1
(g170
g3
NtRp361
(dp362
S'output_calculated_gpbs'
p363
S'3.04'
p364
sg80
NsS'output_calculated'
p365
I3035
sg82
g1
(g88
g89
S'm9-samara-ufa-eburg_1'
tRp366
(dp367
g92
Nsg93
I00
sg94
Nsg95
I00
sg96
I00
sbsg176
g1
(g88
g89
S'Up'
tRp368
(dp369
g92
Nsg93
I00
sg94
Nsg95
I00
sg96
I00
sbsg179
g216
sg181
S'500'
p370
sg183
g1
(g88
g89
S'85.112.127.9'
tRp371
(dp372
g92
Nsg93
I00
sg94
Nsg95
I00
sg96
I00
sbsg186
S'85.112.127.244 - 85.112.127.123 - 85.112.127.175'
p373
sg188
g30
sg86
g216
sg189
(lp374
g1
(g88
g89
S'85.112.127.244'
tRp375
(dp376
g92
Nsg93
I00
sg94
Nsg95
I00
sg96
I00
sbag1
(g88
g89
S'85.112.127.123'
tRp377
(dp378
g92
Nsg93
I00
sg94
Nsg95
I00
sg96
I00
sbag1
(g88
g89
S'85.112.127.175'
tRp379
(dp380
g92
Nsg93
I00
sg94
Nsg95
I00
sg96
I00
sbasS'rbandwidth_calculated'
p381
F6.0700000000000003
sg193
g151
sbag1
(g170
g3
NtRp382
(dp383
g80
S'3.01'
p384
sg82
g1
(g88
g89
S'm9-samara-chelab-eburg_2'
tRp385
(dp386
g92
Nsg93
I00
sg94
Nsg95
I00
sg96
I00
sbsg176
g1
(g88
g89
S'Up'
tRp387
(dp388
g92
Nsg93
I00
sg94
Nsg95
I00
sg96
I00
sbsg179
S'6.0'
p389
sg181
S'500'
p390
sg183
g1
(g88
g89
S'85.112.127.9'
tRp391
(dp392
g92
Nsg93
I00
sg94
Nsg95
I00
sg96
I00
sbsg186
S'85.112.127.246 - 85.112.127.251 - 85.112.127.157'
p393
sg188
g30
sg86
I3013
sg189
(lp394
g1
(g88
g89
S'85.112.127.246'
tRp395
(dp396
g92
Nsg93
I00
sg94
Nsg95
I00
sg96
I00
sbag1
(g88
g89
S'85.112.127.251'
tRp397
(dp398
g92
Nsg93
I00
sg94
Nsg95
I00
sg96
I00
sbag1
(g88
g89
S'85.112.127.157'
tRp399
(dp400
g92
Nsg93
I00
sg94
Nsg95
I00
sg96
I00
sbasg193
g143
sbag1
(g170
g3
NtRp401
(dp402
g80
S'7.16'
p403
sg82
g1
(g88
g89
S'm9-eburg-novosib'
tRp404
(dp405
g92
Nsg93
I00
sg94
Nsg95
I00
sg96
I00
sbsg176
g1
(g88
g89
S'Up'
tRp406
(dp407
g92
Nsg93
I00
sg94
Nsg95
I00
sg96
I00
sbsg179
S'2.4'
p408
sg181
S'3000'
p409
sg183
g1
(g88
g89
S'85.112.127.7'
tRp410
(dp411
g92
Nsg93
I00
sg94
Nsg95
I00
sg96
I00
sbsg186
S'85.112.127.233 - 85.112.127.221'
p412
sg188
g24
sg86
I7163
sg189
(lp413
g1
(g88
g89
S'85.112.127.233'
tRp414
(dp415
g92
Nsg93
I00
sg94
Nsg95
I00
sg96
I00
sbag1
(g88
g89
S'85.112.127.221'
tRp416
(dp417
g92
Nsg93
I00
sg94
Nsg95
I00
sg96
I00
sbasg193
g111
sbag1
(g170
g3
NtRp418
(dp419
g80
S'9.96'
p420
sg82
g1
(g88
g89
S'm9-chelab-novosib'
tRp421
(dp422
g92
Nsg93
I00
sg94
Nsg95
I00
sg96
I00
sbsg176
g1
(g88
g89
S'Up'
tRp423
(dp424
g92
Nsg93
I00
sg94
Nsg95
I00
sg96
I00
sbsg179
S'2.5'
p425
sg181
S'4000'
p426
sg183
g1
(g88
g89
S'85.112.127.7'
tRp427
(dp428
g92
Nsg93
I00
sg94
Nsg95
I00
sg96
I00
sbsg186
S'85.112.127.117 - 85.112.127.235'
p429
sg188
g24
sg86
I9961
sg189
(lp430
g1
(g88
g89
S'85.112.127.117'
tRp431
(dp432
g92
Nsg93
I00
sg94
Nsg95
I00
sg96
I00
sbag1
(g88
g89
S'85.112.127.235'
tRp433
(dp434
g92
Nsg93
I00
sg94
Nsg95
I00
sg96
I00
sbasg193
g103
sbag1
(g170
g3
NtRp435
(dp436
g80
S'5.37'
p437
sg82
g1
(g88
g89
S'm9-chelab-eburg-novosib'
tRp438
(dp439
g92
Nsg93
I00
sg94
Nsg95
I00
sg96
I00
sbsg176
g1
(g88
g89
S'Up'
tRp440
(dp441
g92
Nsg93
I00
sg94
Nsg95
I00
sg96
I00
sbsg179
S'2.4'
p442
sg181
S'2200'
p443
sg183
g1
(g88
g89
S'85.112.127.7'
tRp444
(dp445
g92
Nsg93
I00
sg94
Nsg95
I00
sg96
I00
sbsg186
S'85.112.127.117 - 85.112.127.157 - 85.112.127.221'
p446
sg188
g24
sg86
I5371
sg189
(lp447
g1
(g88
g89
S'85.112.127.117'
tRp448
(dp449
g92
Nsg93
I00
sg94
Nsg95
I00
sg96
I00
sbag1
(g88
g89
S'85.112.127.157'
tRp450
(dp451
g92
Nsg93
I00
sg94
Nsg95
I00
sg96
I00
sbag1
(g88
g89
S'85.112.127.221'
tRp452
(dp453
g92
Nsg93
I00
sg94
Nsg95
I00
sg96
I00
sbasg193
g103
sbag1
(g170
g3
NtRp454
(dp455
g363
S'0.73'
p456
sg80
Nsg365
I729
sg82
g1
(g88
g89
S'm9-eburg-tumen-novosib_1'
tRp457
(dp458
g92
Nsg93
I00
sg94
Nsg95
I00
sg96
I00
sbsg176
g1
(g88
g89
S'Up'
tRp459
(dp460
g92
Nsg93
I00
sg94
Nsg95
I00
sg96
I00
sbsg179
g216
sg181
S'300'
p461
sg183
g1
(g88
g89
S'85.112.127.7'
tRp462
(dp463
g92
Nsg93
I00
sg94
Nsg95
I00
sg96
I00
sbsg186
S'85.112.127.233 - 85.112.127.58  - 85.112.127.162'
p464
sg188
g24
sg86
g216
sg189
(lp465
g1
(g88
g89
S'85.112.127.233'
tRp466
(dp467
g92
Nsg93
I00
sg94
Nsg95
I00
sg96
I00
sbag1
(g88
g89
S'85.112.127.58'
tRp468
(dp469
g92
Nsg93
I00
sg94
Nsg95
I00
sg96
I00
sbag1
(g88
g89
S'85.112.127.162'
tRp470
(dp471
g92
Nsg93
I00
sg94
Nsg95
I00
sg96
I00
sbasg381
F2.4300000000000002
sg193
g111
sbag1
(g170
g3
NtRp472
(dp473
g363
S'2.43'
p474
sg80
Nsg365
I2430
sg82
g1
(g88
g89
S'm9-r0-m9-r2-nnov-eburg-novosib_sv'
tRp475
(dp476
g92
Nsg93
I00
sg94
Nsg95
I00
sg96
I00
sbsg176
g1
(g88
g89
S'Up'
tRp477
(dp478
g92
Nsg93
I00
sg94
Nsg95
I00
sg96
I00
sbsg179
g216
sg181
S'1000'
p479
sg183
g1
(g88
g89
S'85.112.127.7'
tRp480
(dp481
g92
Nsg93
I00
sg94
Nsg95
I00
sg96
I00
sbsg186
S'85.112.127.171 - 85.112.127.177 - 85.112.127.98  - 85.112.127.221'
p482
sg188
g24
sg86
g216
sg189
(lp483
g1
(g88
g89
S'85.112.127.171'
tRp484
(dp485
g92
Nsg93
I00
sg94
Nsg95
I00
sg96
I00
sbag1
(g88
g89
S'85.112.127.177'
tRp486
(dp487
g92
Nsg93
I00
sg94
Nsg95
I00
sg96
I00
sbag1
(g88
g89
S'85.112.127.98'
tRp488
(dp489
g92
Nsg93
I00
sg94
Nsg95
I00
sg96
I00
sbag1
(g88
g89
S'85.112.127.221'
tRp490
(dp491
g92
Nsg93
I00
sg94
Nsg95
I00
sg96
I00
sbasg381
F2.4300000000000002
sg193
g159
sbag1
(g170
g3
NtRp492
(dp493
g363
S'2.43'
p494
sg80
Nsg365
I2430
sg82
g1
(g88
g89
S'm9-eburg-tumen-novosib_2'
tRp495
(dp496
g92
Nsg93
I00
sg94
Nsg95
I00
sg96
I00
sbsg176
g1
(g88
g89
S'Up'
tRp497
(dp498
g92
Nsg93
I00
sg94
Nsg95
I00
sg96
I00
sbsg179
g216
sg181
S'1000'
p499
sg183
g1
(g88
g89
S'85.112.127.7'
tRp500
(dp501
g92
Nsg93
I00
sg94
Nsg95
I00
sg96
I00
sbsg186
S'85.112.127.233 - 85.112.127.58  - 85.112.127.61 '
p502
sg188
g24
sg86
g216
sg189
(lp503
g1
(g88
g89
S'85.112.127.233'
tRp504
(dp505
g92
Nsg93
I00
sg94
Nsg95
I00
sg96
I00
sbag1
(g88
g89
S'85.112.127.58'
tRp506
(dp507
g92
Nsg93
I00
sg94
Nsg95
I00
sg96
I00
sbag1
(g88
g89
S'85.112.127.61'
tRp508
(dp509
g92
Nsg93
I00
sg94
Nsg95
I00
sg96
I00
sbasg381
F2.4300000000000002
sg193
g111
sbag1
(g170
g3
NtRp510
(dp511
g363
S'2.43'
p512
sg80
Nsg365
I2430
sg82
g1
(g88
g89
S'm9-eburg-novosib_sv'
tRp513
(dp514
g92
Nsg93
I00
sg94
Nsg95
I00
sg96
I00
sbsg176
g1
(g88
g89
S'Up'
tRp515
(dp516
g92
Nsg93
I00
sg94
Nsg95
I00
sg96
I00
sbsg179
g216
sg181
S'1000'
p517
sg183
g1
(g88
g89
S'85.112.127.7'
tRp518
(dp519
g92
Nsg93
I00
sg94
Nsg95
I00
sg96
I00
sbsg186
S'85.112.127.233 - 85.112.127.126'
p520
sg188
g24
sg86
g216
sg189
(lp521
g1
(g88
g89
S'85.112.127.233'
tRp522
(dp523
g92
Nsg93
I00
sg94
Nsg95
I00
sg96
I00
sbag1
(g88
g89
S'85.112.127.126'
tRp524
(dp525
g92
Nsg93
I00
sg94
Nsg95
I00
sg96
I00
sbasg381
F2.4300000000000002
sg193
g111
sbag1
(g170
g3
NtRp526
(dp527
g80
S'1.73'
p528
sg82
g1
(g88
g89
S'm9-cheboks1'
tRp529
(dp530
g92
Nsg93
I00
sg94
Nsg95
I00
sg96
I00
sbsg176
g1
(g88
g89
S'Up'
tRp531
(dp532
g92
Nsg93
I00
sg94
Nsg95
I00
sg96
I00
sbsg179
S'1.7'
p533
sg181
S'1000'
p534
sg183
g1
(g88
g89
S'85.112.127.13'
tRp535
(dp536
g92
Nsg93
I00
sg94
Nsg95
I00
sg96
I00
sbsg186
S'85.112.127.213'
p537
sg188
g42
sg86
I1728
sg189
(lp538
g1
(g88
g89
S'85.112.127.213'
tRp539
(dp540
g92
Nsg93
I00
sg94
Nsg95
I00
sg96
I00
sbasg193
g83
sbag1
(g170
g3
NtRp541
(dp542
g80
S'0.95'
p543
sg82
g1
(g88
g89
S'm9-r0-m9-r2-kazan-cheboks'
tRp544
(dp545
g92
Nsg93
I00
sg94
Nsg95
I00
sg96
I00
sbsg176
g1
(g88
g89
S'Up'
tRp546
(dp547
g92
Nsg93
I00
sg94
Nsg95
I00
sg96
I00
sbsg179
S'1.9'
p548
sg181
S'500'
p549
sg183
g1
(g88
g89
S'85.112.127.13'
tRp550
(dp551
g92
Nsg93
I00
sg94
Nsg95
I00
sg96
I00
sbsg186
S'85.112.127.168 - 85.112.127.119 - 85.112.127.218'
p552
sg188
g42
sg86
I955
sg189
(lp553
g1
(g88
g89
S'85.112.127.168'
tRp554
(dp555
g92
Nsg93
I00
sg94
Nsg95
I00
sg96
I00
sbag1
(g88
g89
S'85.112.127.119'
tRp556
(dp557
g92
Nsg93
I00
sg94
Nsg95
I00
sg96
I00
sbag1
(g88
g89
S'85.112.127.218'
tRp558
(dp559
g92
Nsg93
I00
sg94
Nsg95
I00
sg96
I00
sbasg193
g127
sbag1
(g170
g3
NtRp560
(dp561
g80
S'2.15'
p562
sg82
g1
(g88
g89
S'm9-r0-m9-r2-nnov_sv'
tRp563
(dp564
g92
Nsg93
I00
sg94
Nsg95
I00
sg96
I00
sbsg176
g1
(g88
g89
S'Up'
tRp565
(dp566
g92
Nsg93
I00
sg94
Nsg95
I00
sg96
I00
sbsg179
S'21.5'
p567
sg181
S'100'
p568
sg183
g1
(g88
g89
S'85.112.127.10'
tRp569
(dp570
g92
Nsg93
I00
sg94
Nsg95
I00
sg96
I00
sbsg186
S'85.112.127.168 - 85.112.127.177'
p571
sg188
g33
sg86
I2146
sg189
(lp572
g1
(g88
g89
S'85.112.127.168'
tRp573
(dp574
g92
Nsg93
I00
sg94
Nsg95
I00
sg96
I00
sbag1
(g88
g89
S'85.112.127.177'
tRp575
(dp576
g92
Nsg93
I00
sg94
Nsg95
I00
sg96
I00
sbasg193
g127
sbag1
(g170
g3
NtRp577
(dp578
g363
S'2.15'
p579
sg80
Nsg365
I2150
sg82
g1
(g88
g89
S'm9-r0-m9-r2-nnov-sw0-r0'
tRp580
(dp581
g92
Nsg93
I00
sg94
Nsg95
I00
sg96
I00
sbsg176
g1
(g88
g89
S'Up'
tRp582
(dp583
g92
Nsg93
I00
sg94
Nsg95
I00
sg96
I00
sbsg179
g216
sg181
S'100'
p584
sg183
g1
(g88
g89
S'85.112.127.10'
tRp585
(dp586
g92
Nsg93
I00
sg94
Nsg95
I00
sg96
I00
sbsg186
S'85.112.127.168 - 85.112.127.241'
p587
sg188
g33
sg86
g216
sg189
(lp588
g1
(g88
g89
S'85.112.127.168'
tRp589
(dp590
g92
Nsg93
I00
sg94
Nsg95
I00
sg96
I00
sbag1
(g88
g89
S'85.112.127.241'
tRp591
(dp592
g92
Nsg93
I00
sg94
Nsg95
I00
sg96
I00
sbasg381
F21.5
sg193
g127
sbag1
(g170
g3
NtRp593
(dp594
g363
S'7.28'
p595
sg80
Nsg365
I7284
sg82
g1
(g88
g89
S'm9-m9-r2-chelab-eburg'
tRp596
(dp597
g92
Nsg93
I00
sg94
Nsg95
I00
sg96
I00
sbsg176
g1
(g88
g89
S'Up'
tRp598
(dp599
g92
Nsg93
I00
sg94
Nsg95
I00
sg96
I00
sbsg179
g216
sg181
S'1200'
p600
sg183
g1
(g88
g89
S'85.112.127.9'
tRp601
(dp602
g92
Nsg93
I00
sg94
Nsg95
I00
sg96
I00
sbsg186
S'85.112.127.171 - 85.112.127.155 - 85.112.127.157'
p603
sg188
g30
sg86
g216
sg189
(lp604
g1
(g88
g89
S'85.112.127.171'
tRp605
(dp606
g92
Nsg93
I00
sg94
Nsg95
I00
sg96
I00
sbag1
(g88
g89
S'85.112.127.155'
tRp607
(dp608
g92
Nsg93
I00
sg94
Nsg95
I00
sg96
I00
sbag1
(g88
g89
S'85.112.127.157'
tRp609
(dp610
g92
Nsg93
I00
sg94
Nsg95
I00
sg96
I00
sbasg381
F6.0700000000000003
sg193
g159
sbatRp611
(dp612
g166
NsS'zabbixapi'
p613
Nsbsg82
S'm9-r0'
p614
sS'last_parse'
p615
S'Tue Jan 26 15:51:46 2016'
p616
sb.